
Debug/code.elf:     file format elf32-avr

Sections:
Idx Name          Size      VMA       LMA       File off  Algn
  0 .text         000035e4  00000000  00000000  00000094  2**1
                  CONTENTS, ALLOC, LOAD, READONLY, CODE
  1 .data         00000142  00800060  000035e4  00003678  2**0
                  CONTENTS, ALLOC, LOAD, DATA
  2 .bss          00000048  008001a2  008001a2  000037ba  2**0
                  ALLOC
  3 .debug_aranges 00000040  00000000  00000000  000037ba  2**0
                  CONTENTS, READONLY, DEBUGGING
  4 .debug_pubnames 00000060  00000000  00000000  000037fa  2**0
                  CONTENTS, READONLY, DEBUGGING
  5 .debug_info   00000946  00000000  00000000  0000385a  2**0
                  CONTENTS, READONLY, DEBUGGING
  6 .debug_abbrev 000002d9  00000000  00000000  000041a0  2**0
                  CONTENTS, READONLY, DEBUGGING
  7 .debug_line   0000032b  00000000  00000000  00004479  2**0
                  CONTENTS, READONLY, DEBUGGING
  8 .debug_frame  00000040  00000000  00000000  000047a4  2**2
                  CONTENTS, READONLY, DEBUGGING
  9 .debug_str    00000160  00000000  00000000  000047e4  2**0
                  CONTENTS, READONLY, DEBUGGING
 10 .debug_loc    00000f6c  00000000  00000000  00004944  2**0
                  CONTENTS, READONLY, DEBUGGING
 11 .debug_ranges 00000018  00000000  00000000  000058b0  2**0
                  CONTENTS, READONLY, DEBUGGING

Disassembly of section .text:

00000000 <__vectors>:
       0:	0c 94 2a 00 	jmp	0x54	; 0x54 <__ctors_end>
       4:	0c 94 c5 02 	jmp	0x58a	; 0x58a <__vector_1>
       8:	0c 94 ee 02 	jmp	0x5dc	; 0x5dc <__vector_2>
       c:	0c 94 17 03 	jmp	0x62e	; 0x62e <__vector_3>
      10:	0c 94 f0 0b 	jmp	0x17e0	; 0x17e0 <__vector_4>
      14:	0c 94 c7 0b 	jmp	0x178e	; 0x178e <__vector_5>
      18:	0c 94 ce 09 	jmp	0x139c	; 0x139c <__vector_6>
      1c:	0c 94 f7 09 	jmp	0x13ee	; 0x13ee <__vector_7>
      20:	0c 94 20 0a 	jmp	0x1440	; 0x1440 <__vector_8>
      24:	0c 94 49 0a 	jmp	0x1492	; 0x1492 <__vector_9>
      28:	0c 94 92 08 	jmp	0x1124	; 0x1124 <__vector_10>
      2c:	0c 94 69 08 	jmp	0x10d2	; 0x10d2 <__vector_11>
      30:	0c 94 c3 0f 	jmp	0x1f86	; 0x1f86 <__vector_12>
      34:	0c 94 a7 0e 	jmp	0x1d4e	; 0x1d4e <__vector_13>
      38:	0c 94 d0 0e 	jmp	0x1da0	; 0x1da0 <__vector_14>
      3c:	0c 94 f9 0e 	jmp	0x1df2	; 0x1df2 <__vector_15>
      40:	0c 94 ea 07 	jmp	0xfd4	; 0xfd4 <__vector_16>
      44:	0c 94 e3 12 	jmp	0x25c6	; 0x25c6 <__vector_17>
      48:	0c 94 47 00 	jmp	0x8e	; 0x8e <__bad_interrupt>
      4c:	0c 94 88 10 	jmp	0x2110	; 0x2110 <__vector_19>
      50:	0c 94 47 00 	jmp	0x8e	; 0x8e <__bad_interrupt>

00000054 <__ctors_end>:
      54:	11 24       	eor	r1, r1
      56:	1f be       	out	0x3f, r1	; 63
      58:	cf e5       	ldi	r28, 0x5F	; 95
      5a:	d8 e0       	ldi	r29, 0x08	; 8
      5c:	de bf       	out	0x3e, r29	; 62
      5e:	cd bf       	out	0x3d, r28	; 61

00000060 <__do_copy_data>:
      60:	11 e0       	ldi	r17, 0x01	; 1
      62:	a0 e6       	ldi	r26, 0x60	; 96
      64:	b0 e0       	ldi	r27, 0x00	; 0
      66:	e4 ee       	ldi	r30, 0xE4	; 228
      68:	f5 e3       	ldi	r31, 0x35	; 53
      6a:	02 c0       	rjmp	.+4      	; 0x70 <.do_copy_data_start>

0000006c <.do_copy_data_loop>:
      6c:	05 90       	lpm	r0, Z+
      6e:	0d 92       	st	X+, r0

00000070 <.do_copy_data_start>:
      70:	a2 3a       	cpi	r26, 0xA2	; 162
      72:	b1 07       	cpc	r27, r17
      74:	d9 f7       	brne	.-10     	; 0x6c <.do_copy_data_loop>

00000076 <__do_clear_bss>:
      76:	11 e0       	ldi	r17, 0x01	; 1
      78:	a2 ea       	ldi	r26, 0xA2	; 162
      7a:	b1 e0       	ldi	r27, 0x01	; 1
      7c:	01 c0       	rjmp	.+2      	; 0x80 <.do_clear_bss_start>

0000007e <.do_clear_bss_loop>:
      7e:	1d 92       	st	X+, r1

00000080 <.do_clear_bss_start>:
      80:	aa 3e       	cpi	r26, 0xEA	; 234
      82:	b1 07       	cpc	r27, r17
      84:	e1 f7       	brne	.-8      	; 0x7e <.do_clear_bss_loop>
      86:	0e 94 49 00 	call	0x92	; 0x92 <main>
      8a:	0c 94 f0 1a 	jmp	0x35e0	; 0x35e0 <_exit>

0000008e <__bad_interrupt>:
      8e:	0c 94 00 00 	jmp	0	; 0x0 <__vectors>

00000092 <main>:
      92:	80 e0       	ldi	r24, 0x00	; 0
      94:	60 e0       	ldi	r22, 0x00	; 0
      96:	41 e0       	ldi	r20, 0x01	; 1
      98:	20 e0       	ldi	r18, 0x00	; 0
      9a:	0e 94 83 00 	call	0x106	; 0x106 <DIO_InitPin>
      9e:	80 e0       	ldi	r24, 0x00	; 0
      a0:	61 e0       	ldi	r22, 0x01	; 1
      a2:	40 e0       	ldi	r20, 0x00	; 0
      a4:	20 e0       	ldi	r18, 0x00	; 0
      a6:	0e 94 83 00 	call	0x106	; 0x106 <DIO_InitPin>
      aa:	80 e0       	ldi	r24, 0x00	; 0
      ac:	62 e0       	ldi	r22, 0x02	; 2
      ae:	41 e0       	ldi	r20, 0x01	; 1
      b0:	20 e0       	ldi	r18, 0x00	; 0
      b2:	0e 94 83 00 	call	0x106	; 0x106 <DIO_InitPin>
      b6:	80 e0       	ldi	r24, 0x00	; 0
      b8:	63 e0       	ldi	r22, 0x03	; 3
      ba:	40 e0       	ldi	r20, 0x00	; 0
      bc:	20 e0       	ldi	r18, 0x00	; 0
      be:	0e 94 83 00 	call	0x106	; 0x106 <DIO_InitPin>
      c2:	80 e0       	ldi	r24, 0x00	; 0
      c4:	61 e0       	ldi	r22, 0x01	; 1
      c6:	0e 94 af 01 	call	0x35e	; 0x35e <DIO_ReadPin>
      ca:	80 93 e8 01 	sts	0x01E8, r24
      ce:	80 e0       	ldi	r24, 0x00	; 0
      d0:	63 e0       	ldi	r22, 0x03	; 3
      d2:	0e 94 af 01 	call	0x35e	; 0x35e <DIO_ReadPin>
      d6:	68 2f       	mov	r22, r24
      d8:	80 93 e9 01 	sts	0x01E9, r24
      dc:	80 91 e8 01 	lds	r24, 0x01E8
      e0:	46 ee       	ldi	r20, 0xE6	; 230
      e2:	51 e0       	ldi	r21, 0x01	; 1
      e4:	27 ee       	ldi	r18, 0xE7	; 231
      e6:	31 e0       	ldi	r19, 0x01	; 1
      e8:	0e 94 1a 13 	call	0x2634	; 0x2634 <DLCI_lampAlgo>
      ec:	80 e0       	ldi	r24, 0x00	; 0
      ee:	60 e0       	ldi	r22, 0x00	; 0
      f0:	40 91 e6 01 	lds	r20, 0x01E6
      f4:	0e 94 41 01 	call	0x282	; 0x282 <DIO_WritePin>
      f8:	80 e0       	ldi	r24, 0x00	; 0
      fa:	62 e0       	ldi	r22, 0x02	; 2
      fc:	40 91 e7 01 	lds	r20, 0x01E7
     100:	0e 94 41 01 	call	0x282	; 0x282 <DIO_WritePin>
     104:	de cf       	rjmp	.-68     	; 0xc2 <main+0x30>

00000106 <DIO_InitPin>:
     106:	52 2f       	mov	r21, r18
     108:	81 30       	cpi	r24, 0x01	; 1
     10a:	b1 f1       	breq	.+108    	; 0x178 <DIO_InitPin+0x72>
     10c:	81 30       	cpi	r24, 0x01	; 1
     10e:	38 f0       	brcs	.+14     	; 0x11e <DIO_InitPin+0x18>
     110:	82 30       	cpi	r24, 0x02	; 2
     112:	09 f4       	brne	.+2      	; 0x116 <DIO_InitPin+0x10>
     114:	5e c0       	rjmp	.+188    	; 0x1d2 <DIO_InitPin+0xcc>
     116:	83 30       	cpi	r24, 0x03	; 3
     118:	09 f0       	breq	.+2      	; 0x11c <DIO_InitPin+0x16>
     11a:	b2 c0       	rjmp	.+356    	; 0x280 <DIO_InitPin+0x17a>
     11c:	86 c0       	rjmp	.+268    	; 0x22a <DIO_InitPin+0x124>
     11e:	41 30       	cpi	r20, 0x01	; 1
     120:	91 f4       	brne	.+36     	; 0x146 <DIO_InitPin+0x40>
     122:	2a b3       	in	r18, 0x1a	; 26
     124:	81 e0       	ldi	r24, 0x01	; 1
     126:	90 e0       	ldi	r25, 0x00	; 0
     128:	02 c0       	rjmp	.+4      	; 0x12e <DIO_InitPin+0x28>
     12a:	88 0f       	add	r24, r24
     12c:	99 1f       	adc	r25, r25
     12e:	6a 95       	dec	r22
     130:	e2 f7       	brpl	.-8      	; 0x12a <DIO_InitPin+0x24>
     132:	98 2f       	mov	r25, r24
     134:	28 2b       	or	r18, r24
     136:	2a bb       	out	0x1a, r18	; 26
     138:	51 30       	cpi	r21, 0x01	; 1
     13a:	a1 f0       	breq	.+40     	; 0x164 <DIO_InitPin+0x5e>
     13c:	8b b3       	in	r24, 0x1b	; 27
     13e:	90 95       	com	r25
     140:	98 23       	and	r25, r24
     142:	9b bb       	out	0x1b, r25	; 27
     144:	08 95       	ret
     146:	2a b3       	in	r18, 0x1a	; 26
     148:	81 e0       	ldi	r24, 0x01	; 1
     14a:	90 e0       	ldi	r25, 0x00	; 0
     14c:	02 c0       	rjmp	.+4      	; 0x152 <DIO_InitPin+0x4c>
     14e:	88 0f       	add	r24, r24
     150:	99 1f       	adc	r25, r25
     152:	6a 95       	dec	r22
     154:	e2 f7       	brpl	.-8      	; 0x14e <DIO_InitPin+0x48>
     156:	98 2f       	mov	r25, r24
     158:	38 2f       	mov	r19, r24
     15a:	30 95       	com	r19
     15c:	23 23       	and	r18, r19
     15e:	2a bb       	out	0x1a, r18	; 26
     160:	51 30       	cpi	r21, 0x01	; 1
     162:	19 f4       	brne	.+6      	; 0x16a <DIO_InitPin+0x64>
     164:	8b b3       	in	r24, 0x1b	; 27
     166:	98 2b       	or	r25, r24
     168:	ec cf       	rjmp	.-40     	; 0x142 <DIO_InitPin+0x3c>
     16a:	55 23       	and	r21, r21
     16c:	09 f0       	breq	.+2      	; 0x170 <DIO_InitPin+0x6a>
     16e:	88 c0       	rjmp	.+272    	; 0x280 <DIO_InitPin+0x17a>
     170:	8b b3       	in	r24, 0x1b	; 27
     172:	38 23       	and	r19, r24
     174:	3b bb       	out	0x1b, r19	; 27
     176:	08 95       	ret
     178:	41 30       	cpi	r20, 0x01	; 1
     17a:	89 f4       	brne	.+34     	; 0x19e <DIO_InitPin+0x98>
     17c:	27 b3       	in	r18, 0x17	; 23
     17e:	81 e0       	ldi	r24, 0x01	; 1
     180:	90 e0       	ldi	r25, 0x00	; 0
     182:	02 c0       	rjmp	.+4      	; 0x188 <DIO_InitPin+0x82>
     184:	88 0f       	add	r24, r24
     186:	99 1f       	adc	r25, r25
     188:	6a 95       	dec	r22
     18a:	e2 f7       	brpl	.-8      	; 0x184 <DIO_InitPin+0x7e>
     18c:	98 2f       	mov	r25, r24
     18e:	28 2b       	or	r18, r24
     190:	27 bb       	out	0x17, r18	; 23
     192:	51 30       	cpi	r21, 0x01	; 1
     194:	99 f0       	breq	.+38     	; 0x1bc <DIO_InitPin+0xb6>
     196:	88 b3       	in	r24, 0x18	; 24
     198:	90 95       	com	r25
     19a:	98 23       	and	r25, r24
     19c:	11 c0       	rjmp	.+34     	; 0x1c0 <DIO_InitPin+0xba>
     19e:	27 b3       	in	r18, 0x17	; 23
     1a0:	81 e0       	ldi	r24, 0x01	; 1
     1a2:	90 e0       	ldi	r25, 0x00	; 0
     1a4:	02 c0       	rjmp	.+4      	; 0x1aa <DIO_InitPin+0xa4>
     1a6:	88 0f       	add	r24, r24
     1a8:	99 1f       	adc	r25, r25
     1aa:	6a 95       	dec	r22
     1ac:	e2 f7       	brpl	.-8      	; 0x1a6 <DIO_InitPin+0xa0>
     1ae:	98 2f       	mov	r25, r24
     1b0:	38 2f       	mov	r19, r24
     1b2:	30 95       	com	r19
     1b4:	23 23       	and	r18, r19
     1b6:	27 bb       	out	0x17, r18	; 23
     1b8:	51 30       	cpi	r21, 0x01	; 1
     1ba:	21 f4       	brne	.+8      	; 0x1c4 <DIO_InitPin+0xbe>
     1bc:	88 b3       	in	r24, 0x18	; 24
     1be:	98 2b       	or	r25, r24
     1c0:	98 bb       	out	0x18, r25	; 24
     1c2:	08 95       	ret
     1c4:	55 23       	and	r21, r21
     1c6:	09 f0       	breq	.+2      	; 0x1ca <DIO_InitPin+0xc4>
     1c8:	5b c0       	rjmp	.+182    	; 0x280 <DIO_InitPin+0x17a>
     1ca:	88 b3       	in	r24, 0x18	; 24
     1cc:	38 23       	and	r19, r24
     1ce:	38 bb       	out	0x18, r19	; 24
     1d0:	08 95       	ret
     1d2:	41 30       	cpi	r20, 0x01	; 1
     1d4:	89 f4       	brne	.+34     	; 0x1f8 <DIO_InitPin+0xf2>
     1d6:	24 b3       	in	r18, 0x14	; 20
     1d8:	81 e0       	ldi	r24, 0x01	; 1
     1da:	90 e0       	ldi	r25, 0x00	; 0
     1dc:	02 c0       	rjmp	.+4      	; 0x1e2 <DIO_InitPin+0xdc>
     1de:	88 0f       	add	r24, r24
     1e0:	99 1f       	adc	r25, r25
     1e2:	6a 95       	dec	r22
     1e4:	e2 f7       	brpl	.-8      	; 0x1de <DIO_InitPin+0xd8>
     1e6:	98 2f       	mov	r25, r24
     1e8:	28 2b       	or	r18, r24
     1ea:	24 bb       	out	0x14, r18	; 20
     1ec:	51 30       	cpi	r21, 0x01	; 1
     1ee:	99 f0       	breq	.+38     	; 0x216 <DIO_InitPin+0x110>
     1f0:	85 b3       	in	r24, 0x15	; 21
     1f2:	90 95       	com	r25
     1f4:	98 23       	and	r25, r24
     1f6:	11 c0       	rjmp	.+34     	; 0x21a <DIO_InitPin+0x114>
     1f8:	24 b3       	in	r18, 0x14	; 20
     1fa:	81 e0       	ldi	r24, 0x01	; 1
     1fc:	90 e0       	ldi	r25, 0x00	; 0
     1fe:	02 c0       	rjmp	.+4      	; 0x204 <DIO_InitPin+0xfe>
     200:	88 0f       	add	r24, r24
     202:	99 1f       	adc	r25, r25
     204:	6a 95       	dec	r22
     206:	e2 f7       	brpl	.-8      	; 0x200 <DIO_InitPin+0xfa>
     208:	98 2f       	mov	r25, r24
     20a:	38 2f       	mov	r19, r24
     20c:	30 95       	com	r19
     20e:	23 23       	and	r18, r19
     210:	24 bb       	out	0x14, r18	; 20
     212:	51 30       	cpi	r21, 0x01	; 1
     214:	21 f4       	brne	.+8      	; 0x21e <DIO_InitPin+0x118>
     216:	85 b3       	in	r24, 0x15	; 21
     218:	98 2b       	or	r25, r24
     21a:	95 bb       	out	0x15, r25	; 21
     21c:	08 95       	ret
     21e:	55 23       	and	r21, r21
     220:	79 f5       	brne	.+94     	; 0x280 <DIO_InitPin+0x17a>
     222:	85 b3       	in	r24, 0x15	; 21
     224:	38 23       	and	r19, r24
     226:	35 bb       	out	0x15, r19	; 21
     228:	08 95       	ret
     22a:	41 30       	cpi	r20, 0x01	; 1
     22c:	89 f4       	brne	.+34     	; 0x250 <DIO_InitPin+0x14a>
     22e:	21 b3       	in	r18, 0x11	; 17
     230:	81 e0       	ldi	r24, 0x01	; 1
     232:	90 e0       	ldi	r25, 0x00	; 0
     234:	02 c0       	rjmp	.+4      	; 0x23a <DIO_InitPin+0x134>
     236:	88 0f       	add	r24, r24
     238:	99 1f       	adc	r25, r25
     23a:	6a 95       	dec	r22
     23c:	e2 f7       	brpl	.-8      	; 0x236 <DIO_InitPin+0x130>
     23e:	98 2f       	mov	r25, r24
     240:	28 2b       	or	r18, r24
     242:	21 bb       	out	0x11, r18	; 17
     244:	51 30       	cpi	r21, 0x01	; 1
     246:	99 f0       	breq	.+38     	; 0x26e <DIO_InitPin+0x168>
     248:	82 b3       	in	r24, 0x12	; 18
     24a:	90 95       	com	r25
     24c:	98 23       	and	r25, r24
     24e:	11 c0       	rjmp	.+34     	; 0x272 <DIO_InitPin+0x16c>
     250:	21 b3       	in	r18, 0x11	; 17
     252:	81 e0       	ldi	r24, 0x01	; 1
     254:	90 e0       	ldi	r25, 0x00	; 0
     256:	02 c0       	rjmp	.+4      	; 0x25c <DIO_InitPin+0x156>
     258:	88 0f       	add	r24, r24
     25a:	99 1f       	adc	r25, r25
     25c:	6a 95       	dec	r22
     25e:	e2 f7       	brpl	.-8      	; 0x258 <DIO_InitPin+0x152>
     260:	98 2f       	mov	r25, r24
     262:	38 2f       	mov	r19, r24
     264:	30 95       	com	r19
     266:	23 23       	and	r18, r19
     268:	21 bb       	out	0x11, r18	; 17
     26a:	51 30       	cpi	r21, 0x01	; 1
     26c:	21 f4       	brne	.+8      	; 0x276 <DIO_InitPin+0x170>
     26e:	82 b3       	in	r24, 0x12	; 18
     270:	98 2b       	or	r25, r24
     272:	92 bb       	out	0x12, r25	; 18
     274:	08 95       	ret
     276:	55 23       	and	r21, r21
     278:	19 f4       	brne	.+6      	; 0x280 <DIO_InitPin+0x17a>
     27a:	82 b3       	in	r24, 0x12	; 18
     27c:	38 23       	and	r19, r24
     27e:	32 bb       	out	0x12, r19	; 18
     280:	08 95       	ret

00000282 <DIO_WritePin>:
     282:	81 30       	cpi	r24, 0x01	; 1
     284:	09 f1       	breq	.+66     	; 0x2c8 <DIO_WritePin+0x46>
     286:	81 30       	cpi	r24, 0x01	; 1
     288:	30 f0       	brcs	.+12     	; 0x296 <DIO_WritePin+0x14>
     28a:	82 30       	cpi	r24, 0x02	; 2
     28c:	b1 f1       	breq	.+108    	; 0x2fa <DIO_WritePin+0x78>
     28e:	83 30       	cpi	r24, 0x03	; 3
     290:	09 f0       	breq	.+2      	; 0x294 <DIO_WritePin+0x12>
     292:	64 c0       	rjmp	.+200    	; 0x35c <DIO_WritePin+0xda>
     294:	4b c0       	rjmp	.+150    	; 0x32c <DIO_WritePin+0xaa>
     296:	41 30       	cpi	r20, 0x01	; 1
     298:	59 f4       	brne	.+22     	; 0x2b0 <DIO_WritePin+0x2e>
     29a:	2b b3       	in	r18, 0x1b	; 27
     29c:	81 e0       	ldi	r24, 0x01	; 1
     29e:	90 e0       	ldi	r25, 0x00	; 0
     2a0:	02 c0       	rjmp	.+4      	; 0x2a6 <DIO_WritePin+0x24>
     2a2:	88 0f       	add	r24, r24
     2a4:	99 1f       	adc	r25, r25
     2a6:	6a 95       	dec	r22
     2a8:	e2 f7       	brpl	.-8      	; 0x2a2 <DIO_WritePin+0x20>
     2aa:	28 2b       	or	r18, r24
     2ac:	2b bb       	out	0x1b, r18	; 27
     2ae:	08 95       	ret
     2b0:	2b b3       	in	r18, 0x1b	; 27
     2b2:	81 e0       	ldi	r24, 0x01	; 1
     2b4:	90 e0       	ldi	r25, 0x00	; 0
     2b6:	02 c0       	rjmp	.+4      	; 0x2bc <DIO_WritePin+0x3a>
     2b8:	88 0f       	add	r24, r24
     2ba:	99 1f       	adc	r25, r25
     2bc:	6a 95       	dec	r22
     2be:	e2 f7       	brpl	.-8      	; 0x2b8 <DIO_WritePin+0x36>
     2c0:	80 95       	com	r24
     2c2:	82 23       	and	r24, r18
     2c4:	8b bb       	out	0x1b, r24	; 27
     2c6:	08 95       	ret
     2c8:	41 30       	cpi	r20, 0x01	; 1
     2ca:	59 f4       	brne	.+22     	; 0x2e2 <DIO_WritePin+0x60>
     2cc:	28 b3       	in	r18, 0x18	; 24
     2ce:	81 e0       	ldi	r24, 0x01	; 1
     2d0:	90 e0       	ldi	r25, 0x00	; 0
     2d2:	02 c0       	rjmp	.+4      	; 0x2d8 <DIO_WritePin+0x56>
     2d4:	88 0f       	add	r24, r24
     2d6:	99 1f       	adc	r25, r25
     2d8:	6a 95       	dec	r22
     2da:	e2 f7       	brpl	.-8      	; 0x2d4 <DIO_WritePin+0x52>
     2dc:	28 2b       	or	r18, r24
     2de:	28 bb       	out	0x18, r18	; 24
     2e0:	08 95       	ret
     2e2:	28 b3       	in	r18, 0x18	; 24
     2e4:	81 e0       	ldi	r24, 0x01	; 1
     2e6:	90 e0       	ldi	r25, 0x00	; 0
     2e8:	02 c0       	rjmp	.+4      	; 0x2ee <DIO_WritePin+0x6c>
     2ea:	88 0f       	add	r24, r24
     2ec:	99 1f       	adc	r25, r25
     2ee:	6a 95       	dec	r22
     2f0:	e2 f7       	brpl	.-8      	; 0x2ea <DIO_WritePin+0x68>
     2f2:	80 95       	com	r24
     2f4:	82 23       	and	r24, r18
     2f6:	88 bb       	out	0x18, r24	; 24
     2f8:	08 95       	ret
     2fa:	41 30       	cpi	r20, 0x01	; 1
     2fc:	59 f4       	brne	.+22     	; 0x314 <DIO_WritePin+0x92>
     2fe:	25 b3       	in	r18, 0x15	; 21
     300:	81 e0       	ldi	r24, 0x01	; 1
     302:	90 e0       	ldi	r25, 0x00	; 0
     304:	02 c0       	rjmp	.+4      	; 0x30a <DIO_WritePin+0x88>
     306:	88 0f       	add	r24, r24
     308:	99 1f       	adc	r25, r25
     30a:	6a 95       	dec	r22
     30c:	e2 f7       	brpl	.-8      	; 0x306 <DIO_WritePin+0x84>
     30e:	28 2b       	or	r18, r24
     310:	25 bb       	out	0x15, r18	; 21
     312:	08 95       	ret
     314:	25 b3       	in	r18, 0x15	; 21
     316:	81 e0       	ldi	r24, 0x01	; 1
     318:	90 e0       	ldi	r25, 0x00	; 0
     31a:	02 c0       	rjmp	.+4      	; 0x320 <DIO_WritePin+0x9e>
     31c:	88 0f       	add	r24, r24
     31e:	99 1f       	adc	r25, r25
     320:	6a 95       	dec	r22
     322:	e2 f7       	brpl	.-8      	; 0x31c <DIO_WritePin+0x9a>
     324:	80 95       	com	r24
     326:	82 23       	and	r24, r18
     328:	85 bb       	out	0x15, r24	; 21
     32a:	08 95       	ret
     32c:	41 30       	cpi	r20, 0x01	; 1
     32e:	59 f4       	brne	.+22     	; 0x346 <DIO_WritePin+0xc4>
     330:	22 b3       	in	r18, 0x12	; 18
     332:	81 e0       	ldi	r24, 0x01	; 1
     334:	90 e0       	ldi	r25, 0x00	; 0
     336:	02 c0       	rjmp	.+4      	; 0x33c <DIO_WritePin+0xba>
     338:	88 0f       	add	r24, r24
     33a:	99 1f       	adc	r25, r25
     33c:	6a 95       	dec	r22
     33e:	e2 f7       	brpl	.-8      	; 0x338 <DIO_WritePin+0xb6>
     340:	28 2b       	or	r18, r24
     342:	22 bb       	out	0x12, r18	; 18
     344:	08 95       	ret
     346:	22 b3       	in	r18, 0x12	; 18
     348:	81 e0       	ldi	r24, 0x01	; 1
     34a:	90 e0       	ldi	r25, 0x00	; 0
     34c:	02 c0       	rjmp	.+4      	; 0x352 <DIO_WritePin+0xd0>
     34e:	88 0f       	add	r24, r24
     350:	99 1f       	adc	r25, r25
     352:	6a 95       	dec	r22
     354:	e2 f7       	brpl	.-8      	; 0x34e <DIO_WritePin+0xcc>
     356:	80 95       	com	r24
     358:	82 23       	and	r24, r18
     35a:	82 bb       	out	0x12, r24	; 18
     35c:	08 95       	ret

0000035e <DIO_ReadPin>:
     35e:	81 30       	cpi	r24, 0x01	; 1
     360:	59 f0       	breq	.+22     	; 0x378 <DIO_ReadPin+0x1a>
     362:	81 30       	cpi	r24, 0x01	; 1
     364:	30 f0       	brcs	.+12     	; 0x372 <DIO_ReadPin+0x14>
     366:	82 30       	cpi	r24, 0x02	; 2
     368:	51 f0       	breq	.+20     	; 0x37e <DIO_ReadPin+0x20>
     36a:	83 30       	cpi	r24, 0x03	; 3
     36c:	59 f0       	breq	.+22     	; 0x384 <DIO_ReadPin+0x26>
     36e:	70 e0       	ldi	r23, 0x00	; 0
     370:	1d c0       	rjmp	.+58     	; 0x3ac <DIO_ReadPin+0x4e>
     372:	89 b3       	in	r24, 0x19	; 25
     374:	49 b3       	in	r20, 0x19	; 25
     376:	08 c0       	rjmp	.+16     	; 0x388 <DIO_ReadPin+0x2a>
     378:	86 b3       	in	r24, 0x16	; 22
     37a:	46 b3       	in	r20, 0x16	; 22
     37c:	05 c0       	rjmp	.+10     	; 0x388 <DIO_ReadPin+0x2a>
     37e:	83 b3       	in	r24, 0x13	; 19
     380:	43 b3       	in	r20, 0x13	; 19
     382:	02 c0       	rjmp	.+4      	; 0x388 <DIO_ReadPin+0x2a>
     384:	80 b3       	in	r24, 0x10	; 16
     386:	40 b3       	in	r20, 0x10	; 16
     388:	70 e0       	ldi	r23, 0x00	; 0
     38a:	21 e0       	ldi	r18, 0x01	; 1
     38c:	30 e0       	ldi	r19, 0x00	; 0
     38e:	02 c0       	rjmp	.+4      	; 0x394 <DIO_ReadPin+0x36>
     390:	22 0f       	add	r18, r18
     392:	33 1f       	adc	r19, r19
     394:	6a 95       	dec	r22
     396:	e2 f7       	brpl	.-8      	; 0x390 <DIO_ReadPin+0x32>
     398:	20 95       	com	r18
     39a:	30 95       	com	r19
     39c:	90 e0       	ldi	r25, 0x00	; 0
     39e:	28 23       	and	r18, r24
     3a0:	39 23       	and	r19, r25
     3a2:	50 e0       	ldi	r21, 0x00	; 0
     3a4:	24 17       	cp	r18, r20
     3a6:	35 07       	cpc	r19, r21
     3a8:	09 f0       	breq	.+2      	; 0x3ac <DIO_ReadPin+0x4e>
     3aa:	71 e0       	ldi	r23, 0x01	; 1
     3ac:	87 2f       	mov	r24, r23
     3ae:	08 95       	ret

000003b0 <DIO_TogglePin>:
     3b0:	81 30       	cpi	r24, 0x01	; 1
     3b2:	91 f0       	breq	.+36     	; 0x3d8 <DIO_TogglePin+0x28>
     3b4:	81 30       	cpi	r24, 0x01	; 1
     3b6:	28 f0       	brcs	.+10     	; 0x3c2 <DIO_TogglePin+0x12>
     3b8:	82 30       	cpi	r24, 0x02	; 2
     3ba:	c9 f0       	breq	.+50     	; 0x3ee <DIO_TogglePin+0x3e>
     3bc:	83 30       	cpi	r24, 0x03	; 3
     3be:	61 f5       	brne	.+88     	; 0x418 <DIO_TogglePin+0x68>
     3c0:	21 c0       	rjmp	.+66     	; 0x404 <DIO_TogglePin+0x54>
     3c2:	2b b3       	in	r18, 0x1b	; 27
     3c4:	81 e0       	ldi	r24, 0x01	; 1
     3c6:	90 e0       	ldi	r25, 0x00	; 0
     3c8:	02 c0       	rjmp	.+4      	; 0x3ce <DIO_TogglePin+0x1e>
     3ca:	88 0f       	add	r24, r24
     3cc:	99 1f       	adc	r25, r25
     3ce:	6a 95       	dec	r22
     3d0:	e2 f7       	brpl	.-8      	; 0x3ca <DIO_TogglePin+0x1a>
     3d2:	28 27       	eor	r18, r24
     3d4:	2b bb       	out	0x1b, r18	; 27
     3d6:	08 95       	ret
     3d8:	28 b3       	in	r18, 0x18	; 24
     3da:	81 e0       	ldi	r24, 0x01	; 1
     3dc:	90 e0       	ldi	r25, 0x00	; 0
     3de:	02 c0       	rjmp	.+4      	; 0x3e4 <DIO_TogglePin+0x34>
     3e0:	88 0f       	add	r24, r24
     3e2:	99 1f       	adc	r25, r25
     3e4:	6a 95       	dec	r22
     3e6:	e2 f7       	brpl	.-8      	; 0x3e0 <DIO_TogglePin+0x30>
     3e8:	28 27       	eor	r18, r24
     3ea:	28 bb       	out	0x18, r18	; 24
     3ec:	08 95       	ret
     3ee:	25 b3       	in	r18, 0x15	; 21
     3f0:	81 e0       	ldi	r24, 0x01	; 1
     3f2:	90 e0       	ldi	r25, 0x00	; 0
     3f4:	02 c0       	rjmp	.+4      	; 0x3fa <DIO_TogglePin+0x4a>
     3f6:	88 0f       	add	r24, r24
     3f8:	99 1f       	adc	r25, r25
     3fa:	6a 95       	dec	r22
     3fc:	e2 f7       	brpl	.-8      	; 0x3f6 <DIO_TogglePin+0x46>
     3fe:	28 27       	eor	r18, r24
     400:	25 bb       	out	0x15, r18	; 21
     402:	08 95       	ret
     404:	22 b3       	in	r18, 0x12	; 18
     406:	81 e0       	ldi	r24, 0x01	; 1
     408:	90 e0       	ldi	r25, 0x00	; 0
     40a:	02 c0       	rjmp	.+4      	; 0x410 <DIO_TogglePin+0x60>
     40c:	88 0f       	add	r24, r24
     40e:	99 1f       	adc	r25, r25
     410:	6a 95       	dec	r22
     412:	e2 f7       	brpl	.-8      	; 0x40c <DIO_TogglePin+0x5c>
     414:	28 27       	eor	r18, r24
     416:	22 bb       	out	0x12, r18	; 18
     418:	08 95       	ret

0000041a <DIO_InitPort>:
     41a:	81 30       	cpi	r24, 0x01	; 1
     41c:	51 f0       	breq	.+20     	; 0x432 <DIO_InitPort+0x18>
     41e:	81 30       	cpi	r24, 0x01	; 1
     420:	28 f0       	brcs	.+10     	; 0x42c <DIO_InitPort+0x12>
     422:	82 30       	cpi	r24, 0x02	; 2
     424:	49 f0       	breq	.+18     	; 0x438 <DIO_InitPort+0x1e>
     426:	83 30       	cpi	r24, 0x03	; 3
     428:	61 f4       	brne	.+24     	; 0x442 <DIO_InitPort+0x28>
     42a:	09 c0       	rjmp	.+18     	; 0x43e <DIO_InitPort+0x24>
     42c:	6a bb       	out	0x1a, r22	; 26
     42e:	4b bb       	out	0x1b, r20	; 27
     430:	08 95       	ret
     432:	67 bb       	out	0x17, r22	; 23
     434:	48 bb       	out	0x18, r20	; 24
     436:	08 95       	ret
     438:	64 bb       	out	0x14, r22	; 20
     43a:	45 bb       	out	0x15, r20	; 21
     43c:	08 95       	ret
     43e:	61 bb       	out	0x11, r22	; 17
     440:	42 bb       	out	0x12, r20	; 18
     442:	08 95       	ret

00000444 <DIO_WritePort>:
     444:	81 30       	cpi	r24, 0x01	; 1
     446:	49 f0       	breq	.+18     	; 0x45a <DIO_WritePort+0x16>
     448:	81 30       	cpi	r24, 0x01	; 1
     44a:	28 f0       	brcs	.+10     	; 0x456 <DIO_WritePort+0x12>
     44c:	82 30       	cpi	r24, 0x02	; 2
     44e:	39 f0       	breq	.+14     	; 0x45e <DIO_WritePort+0x1a>
     450:	83 30       	cpi	r24, 0x03	; 3
     452:	41 f4       	brne	.+16     	; 0x464 <DIO_WritePort+0x20>
     454:	06 c0       	rjmp	.+12     	; 0x462 <DIO_WritePort+0x1e>
     456:	6b bb       	out	0x1b, r22	; 27
     458:	08 95       	ret
     45a:	68 bb       	out	0x18, r22	; 24
     45c:	08 95       	ret
     45e:	65 bb       	out	0x15, r22	; 21
     460:	08 95       	ret
     462:	62 bb       	out	0x12, r22	; 18
     464:	08 95       	ret

00000466 <DIO_ReadPort>:
     466:	81 30       	cpi	r24, 0x01	; 1
     468:	51 f0       	breq	.+20     	; 0x47e <DIO_ReadPort+0x18>
     46a:	81 30       	cpi	r24, 0x01	; 1
     46c:	30 f0       	brcs	.+12     	; 0x47a <DIO_ReadPort+0x14>
     46e:	82 30       	cpi	r24, 0x02	; 2
     470:	41 f0       	breq	.+16     	; 0x482 <DIO_ReadPort+0x1c>
     472:	83 30       	cpi	r24, 0x03	; 3
     474:	41 f0       	breq	.+16     	; 0x486 <DIO_ReadPort+0x20>
     476:	80 e0       	ldi	r24, 0x00	; 0
     478:	08 95       	ret
     47a:	89 b3       	in	r24, 0x19	; 25
     47c:	08 95       	ret
     47e:	86 b3       	in	r24, 0x16	; 22
     480:	08 95       	ret
     482:	83 b3       	in	r24, 0x13	; 19
     484:	08 95       	ret
     486:	80 b3       	in	r24, 0x10	; 16
     488:	08 95       	ret

0000048a <EXTI_voidConfig>:
     48a:	64 30       	cpi	r22, 0x04	; 4
     48c:	30 f5       	brcc	.+76     	; 0x4da <EXTI_voidConfig+0x50>
     48e:	81 30       	cpi	r24, 0x01	; 1
     490:	91 05       	cpc	r25, r1
     492:	59 f0       	breq	.+22     	; 0x4aa <EXTI_voidConfig+0x20>
     494:	81 30       	cpi	r24, 0x01	; 1
     496:	91 05       	cpc	r25, r1
     498:	18 f0       	brcs	.+6      	; 0x4a0 <EXTI_voidConfig+0x16>
     49a:	02 97       	sbiw	r24, 0x02	; 2
     49c:	f1 f4       	brne	.+60     	; 0x4da <EXTI_voidConfig+0x50>
     49e:	0e c0       	rjmp	.+28     	; 0x4bc <EXTI_voidConfig+0x32>
     4a0:	85 b7       	in	r24, 0x35	; 53
     4a2:	8c 7f       	andi	r24, 0xFC	; 252
     4a4:	85 bf       	out	0x35, r24	; 53
     4a6:	85 b7       	in	r24, 0x35	; 53
     4a8:	06 c0       	rjmp	.+12     	; 0x4b6 <EXTI_voidConfig+0x2c>
     4aa:	85 b7       	in	r24, 0x35	; 53
     4ac:	83 7f       	andi	r24, 0xF3	; 243
     4ae:	85 bf       	out	0x35, r24	; 53
     4b0:	85 b7       	in	r24, 0x35	; 53
     4b2:	66 0f       	add	r22, r22
     4b4:	66 0f       	add	r22, r22
     4b6:	86 2b       	or	r24, r22
     4b8:	85 bf       	out	0x35, r24	; 53
     4ba:	08 95       	ret
     4bc:	62 30       	cpi	r22, 0x02	; 2
     4be:	19 f0       	breq	.+6      	; 0x4c6 <EXTI_voidConfig+0x3c>
     4c0:	63 30       	cpi	r22, 0x03	; 3
     4c2:	41 f4       	brne	.+16     	; 0x4d4 <EXTI_voidConfig+0x4a>
     4c4:	03 c0       	rjmp	.+6      	; 0x4cc <EXTI_voidConfig+0x42>
     4c6:	84 b7       	in	r24, 0x34	; 52
     4c8:	8f 7b       	andi	r24, 0xBF	; 191
     4ca:	02 c0       	rjmp	.+4      	; 0x4d0 <EXTI_voidConfig+0x46>
     4cc:	84 b7       	in	r24, 0x34	; 52
     4ce:	80 64       	ori	r24, 0x40	; 64
     4d0:	84 bf       	out	0x34, r24	; 52
     4d2:	08 95       	ret
     4d4:	84 b7       	in	r24, 0x34	; 52
     4d6:	8f 7b       	andi	r24, 0xBF	; 191
     4d8:	84 bf       	out	0x34, r24	; 52
     4da:	08 95       	ret

000004dc <EXTI_voidEnable>:
     4dc:	81 30       	cpi	r24, 0x01	; 1
     4de:	91 05       	cpc	r25, r1
     4e0:	49 f0       	breq	.+18     	; 0x4f4 <EXTI_voidEnable+0x18>
     4e2:	81 30       	cpi	r24, 0x01	; 1
     4e4:	91 05       	cpc	r25, r1
     4e6:	18 f0       	brcs	.+6      	; 0x4ee <EXTI_voidEnable+0x12>
     4e8:	02 97       	sbiw	r24, 0x02	; 2
     4ea:	59 f4       	brne	.+22     	; 0x502 <EXTI_voidEnable+0x26>
     4ec:	07 c0       	rjmp	.+14     	; 0x4fc <EXTI_voidEnable+0x20>
     4ee:	8b b7       	in	r24, 0x3b	; 59
     4f0:	80 64       	ori	r24, 0x40	; 64
     4f2:	02 c0       	rjmp	.+4      	; 0x4f8 <EXTI_voidEnable+0x1c>
     4f4:	8b b7       	in	r24, 0x3b	; 59
     4f6:	80 68       	ori	r24, 0x80	; 128
     4f8:	8b bf       	out	0x3b, r24	; 59
     4fa:	08 95       	ret
     4fc:	8b b7       	in	r24, 0x3b	; 59
     4fe:	80 62       	ori	r24, 0x20	; 32
     500:	8b bf       	out	0x3b, r24	; 59
     502:	08 95       	ret

00000504 <EXTI_voidDisable>:
     504:	81 30       	cpi	r24, 0x01	; 1
     506:	91 05       	cpc	r25, r1
     508:	49 f0       	breq	.+18     	; 0x51c <EXTI_voidDisable+0x18>
     50a:	81 30       	cpi	r24, 0x01	; 1
     50c:	91 05       	cpc	r25, r1
     50e:	18 f0       	brcs	.+6      	; 0x516 <EXTI_voidDisable+0x12>
     510:	02 97       	sbiw	r24, 0x02	; 2
     512:	59 f4       	brne	.+22     	; 0x52a <EXTI_voidDisable+0x26>
     514:	07 c0       	rjmp	.+14     	; 0x524 <EXTI_voidDisable+0x20>
     516:	8b b7       	in	r24, 0x3b	; 59
     518:	8f 7b       	andi	r24, 0xBF	; 191
     51a:	02 c0       	rjmp	.+4      	; 0x520 <EXTI_voidDisable+0x1c>
     51c:	8b b7       	in	r24, 0x3b	; 59
     51e:	8f 77       	andi	r24, 0x7F	; 127
     520:	8b bf       	out	0x3b, r24	; 59
     522:	08 95       	ret
     524:	8b b7       	in	r24, 0x3b	; 59
     526:	8f 7d       	andi	r24, 0xDF	; 223
     528:	8b bf       	out	0x3b, r24	; 59
     52a:	08 95       	ret

0000052c <EXTI_voidClearFlag>:
     52c:	81 30       	cpi	r24, 0x01	; 1
     52e:	91 05       	cpc	r25, r1
     530:	49 f0       	breq	.+18     	; 0x544 <EXTI_voidClearFlag+0x18>
     532:	81 30       	cpi	r24, 0x01	; 1
     534:	91 05       	cpc	r25, r1
     536:	18 f0       	brcs	.+6      	; 0x53e <EXTI_voidClearFlag+0x12>
     538:	02 97       	sbiw	r24, 0x02	; 2
     53a:	59 f4       	brne	.+22     	; 0x552 <EXTI_voidClearFlag+0x26>
     53c:	07 c0       	rjmp	.+14     	; 0x54c <EXTI_voidClearFlag+0x20>
     53e:	8a b7       	in	r24, 0x3a	; 58
     540:	80 64       	ori	r24, 0x40	; 64
     542:	02 c0       	rjmp	.+4      	; 0x548 <EXTI_voidClearFlag+0x1c>
     544:	8a b7       	in	r24, 0x3a	; 58
     546:	80 68       	ori	r24, 0x80	; 128
     548:	8a bf       	out	0x3a, r24	; 58
     54a:	08 95       	ret
     54c:	8a b7       	in	r24, 0x3a	; 58
     54e:	80 62       	ori	r24, 0x20	; 32
     550:	8a bf       	out	0x3a, r24	; 58
     552:	08 95       	ret

00000554 <EXTI_voidSetCallBack>:
     554:	61 15       	cp	r22, r1
     556:	71 05       	cpc	r23, r1
     558:	b9 f0       	breq	.+46     	; 0x588 <EXTI_voidSetCallBack+0x34>
     55a:	81 30       	cpi	r24, 0x01	; 1
     55c:	91 05       	cpc	r25, r1
     55e:	59 f0       	breq	.+22     	; 0x576 <EXTI_voidSetCallBack+0x22>
     560:	81 30       	cpi	r24, 0x01	; 1
     562:	91 05       	cpc	r25, r1
     564:	18 f0       	brcs	.+6      	; 0x56c <EXTI_voidSetCallBack+0x18>
     566:	02 97       	sbiw	r24, 0x02	; 2
     568:	79 f4       	brne	.+30     	; 0x588 <EXTI_voidSetCallBack+0x34>
     56a:	0a c0       	rjmp	.+20     	; 0x580 <EXTI_voidSetCallBack+0x2c>
     56c:	70 93 a7 01 	sts	0x01A7, r23
     570:	60 93 a6 01 	sts	0x01A6, r22
     574:	08 95       	ret
     576:	70 93 a5 01 	sts	0x01A5, r23
     57a:	60 93 a4 01 	sts	0x01A4, r22
     57e:	08 95       	ret
     580:	70 93 a3 01 	sts	0x01A3, r23
     584:	60 93 a2 01 	sts	0x01A2, r22
     588:	08 95       	ret

0000058a <__vector_1>:
     58a:	1f 92       	push	r1
     58c:	0f 92       	push	r0
     58e:	0f b6       	in	r0, 0x3f	; 63
     590:	0f 92       	push	r0
     592:	11 24       	eor	r1, r1
     594:	2f 93       	push	r18
     596:	3f 93       	push	r19
     598:	4f 93       	push	r20
     59a:	5f 93       	push	r21
     59c:	6f 93       	push	r22
     59e:	7f 93       	push	r23
     5a0:	8f 93       	push	r24
     5a2:	9f 93       	push	r25
     5a4:	af 93       	push	r26
     5a6:	bf 93       	push	r27
     5a8:	ef 93       	push	r30
     5aa:	ff 93       	push	r31
     5ac:	e0 91 a6 01 	lds	r30, 0x01A6
     5b0:	f0 91 a7 01 	lds	r31, 0x01A7
     5b4:	30 97       	sbiw	r30, 0x00	; 0
     5b6:	09 f0       	breq	.+2      	; 0x5ba <__vector_1+0x30>
     5b8:	09 95       	icall
     5ba:	ff 91       	pop	r31
     5bc:	ef 91       	pop	r30
     5be:	bf 91       	pop	r27
     5c0:	af 91       	pop	r26
     5c2:	9f 91       	pop	r25
     5c4:	8f 91       	pop	r24
     5c6:	7f 91       	pop	r23
     5c8:	6f 91       	pop	r22
     5ca:	5f 91       	pop	r21
     5cc:	4f 91       	pop	r20
     5ce:	3f 91       	pop	r19
     5d0:	2f 91       	pop	r18
     5d2:	0f 90       	pop	r0
     5d4:	0f be       	out	0x3f, r0	; 63
     5d6:	0f 90       	pop	r0
     5d8:	1f 90       	pop	r1
     5da:	18 95       	reti

000005dc <__vector_2>:
     5dc:	1f 92       	push	r1
     5de:	0f 92       	push	r0
     5e0:	0f b6       	in	r0, 0x3f	; 63
     5e2:	0f 92       	push	r0
     5e4:	11 24       	eor	r1, r1
     5e6:	2f 93       	push	r18
     5e8:	3f 93       	push	r19
     5ea:	4f 93       	push	r20
     5ec:	5f 93       	push	r21
     5ee:	6f 93       	push	r22
     5f0:	7f 93       	push	r23
     5f2:	8f 93       	push	r24
     5f4:	9f 93       	push	r25
     5f6:	af 93       	push	r26
     5f8:	bf 93       	push	r27
     5fa:	ef 93       	push	r30
     5fc:	ff 93       	push	r31
     5fe:	e0 91 a4 01 	lds	r30, 0x01A4
     602:	f0 91 a5 01 	lds	r31, 0x01A5
     606:	30 97       	sbiw	r30, 0x00	; 0
     608:	09 f0       	breq	.+2      	; 0x60c <__vector_2+0x30>
     60a:	09 95       	icall
     60c:	ff 91       	pop	r31
     60e:	ef 91       	pop	r30
     610:	bf 91       	pop	r27
     612:	af 91       	pop	r26
     614:	9f 91       	pop	r25
     616:	8f 91       	pop	r24
     618:	7f 91       	pop	r23
     61a:	6f 91       	pop	r22
     61c:	5f 91       	pop	r21
     61e:	4f 91       	pop	r20
     620:	3f 91       	pop	r19
     622:	2f 91       	pop	r18
     624:	0f 90       	pop	r0
     626:	0f be       	out	0x3f, r0	; 63
     628:	0f 90       	pop	r0
     62a:	1f 90       	pop	r1
     62c:	18 95       	reti

0000062e <__vector_3>:
     62e:	1f 92       	push	r1
     630:	0f 92       	push	r0
     632:	0f b6       	in	r0, 0x3f	; 63
     634:	0f 92       	push	r0
     636:	11 24       	eor	r1, r1
     638:	2f 93       	push	r18
     63a:	3f 93       	push	r19
     63c:	4f 93       	push	r20
     63e:	5f 93       	push	r21
     640:	6f 93       	push	r22
     642:	7f 93       	push	r23
     644:	8f 93       	push	r24
     646:	9f 93       	push	r25
     648:	af 93       	push	r26
     64a:	bf 93       	push	r27
     64c:	ef 93       	push	r30
     64e:	ff 93       	push	r31
     650:	e0 91 a2 01 	lds	r30, 0x01A2
     654:	f0 91 a3 01 	lds	r31, 0x01A3
     658:	30 97       	sbiw	r30, 0x00	; 0
     65a:	09 f0       	breq	.+2      	; 0x65e <__vector_3+0x30>
     65c:	09 95       	icall
     65e:	ff 91       	pop	r31
     660:	ef 91       	pop	r30
     662:	bf 91       	pop	r27
     664:	af 91       	pop	r26
     666:	9f 91       	pop	r25
     668:	8f 91       	pop	r24
     66a:	7f 91       	pop	r23
     66c:	6f 91       	pop	r22
     66e:	5f 91       	pop	r21
     670:	4f 91       	pop	r20
     672:	3f 91       	pop	r19
     674:	2f 91       	pop	r18
     676:	0f 90       	pop	r0
     678:	0f be       	out	0x3f, r0	; 63
     67a:	0f 90       	pop	r0
     67c:	1f 90       	pop	r1
     67e:	18 95       	reti

00000680 <SSD_Write>:
     680:	68 2f       	mov	r22, r24
     682:	83 e0       	ldi	r24, 0x03	; 3
     684:	0e 94 22 02 	call	0x444	; 0x444 <DIO_WritePort>
     688:	08 95       	ret

0000068a <SSD_Init>:
     68a:	83 e0       	ldi	r24, 0x03	; 3
     68c:	6f ef       	ldi	r22, 0xFF	; 255
     68e:	40 e0       	ldi	r20, 0x00	; 0
     690:	0e 94 0d 02 	call	0x41a	; 0x41a <DIO_InitPort>
     694:	08 95       	ret

00000696 <LCD_voidSendData>:
     696:	1f 93       	push	r17
     698:	cf 93       	push	r28
     69a:	df 93       	push	r29
     69c:	18 2f       	mov	r17, r24
     69e:	80 e0       	ldi	r24, 0x00	; 0
     6a0:	60 e0       	ldi	r22, 0x00	; 0
     6a2:	41 e0       	ldi	r20, 0x01	; 1
     6a4:	0e 94 41 01 	call	0x282	; 0x282 <DIO_WritePin>
     6a8:	80 e0       	ldi	r24, 0x00	; 0
     6aa:	61 e0       	ldi	r22, 0x01	; 1
     6ac:	40 e0       	ldi	r20, 0x00	; 0
     6ae:	0e 94 41 01 	call	0x282	; 0x282 <DIO_WritePin>
     6b2:	c1 2f       	mov	r28, r17
     6b4:	d0 e0       	ldi	r29, 0x00	; 0
     6b6:	40 e0       	ldi	r20, 0x00	; 0
     6b8:	ce 01       	movw	r24, r28
     6ba:	8f 7e       	andi	r24, 0xEF	; 239
     6bc:	8c 17       	cp	r24, r28
     6be:	9d 07       	cpc	r25, r29
     6c0:	09 f0       	breq	.+2      	; 0x6c4 <LCD_voidSendData+0x2e>
     6c2:	41 e0       	ldi	r20, 0x01	; 1
     6c4:	80 e0       	ldi	r24, 0x00	; 0
     6c6:	63 e0       	ldi	r22, 0x03	; 3
     6c8:	0e 94 41 01 	call	0x282	; 0x282 <DIO_WritePin>
     6cc:	40 e0       	ldi	r20, 0x00	; 0
     6ce:	ce 01       	movw	r24, r28
     6d0:	8f 7d       	andi	r24, 0xDF	; 223
     6d2:	8c 17       	cp	r24, r28
     6d4:	9d 07       	cpc	r25, r29
     6d6:	09 f0       	breq	.+2      	; 0x6da <LCD_voidSendData+0x44>
     6d8:	41 e0       	ldi	r20, 0x01	; 1
     6da:	80 e0       	ldi	r24, 0x00	; 0
     6dc:	64 e0       	ldi	r22, 0x04	; 4
     6de:	0e 94 41 01 	call	0x282	; 0x282 <DIO_WritePin>
     6e2:	40 e0       	ldi	r20, 0x00	; 0
     6e4:	ce 01       	movw	r24, r28
     6e6:	8f 7b       	andi	r24, 0xBF	; 191
     6e8:	8c 17       	cp	r24, r28
     6ea:	9d 07       	cpc	r25, r29
     6ec:	09 f0       	breq	.+2      	; 0x6f0 <LCD_voidSendData+0x5a>
     6ee:	41 e0       	ldi	r20, 0x01	; 1
     6f0:	80 e0       	ldi	r24, 0x00	; 0
     6f2:	65 e0       	ldi	r22, 0x05	; 5
     6f4:	0e 94 41 01 	call	0x282	; 0x282 <DIO_WritePin>
     6f8:	40 e0       	ldi	r20, 0x00	; 0
     6fa:	ce 01       	movw	r24, r28
     6fc:	8f 77       	andi	r24, 0x7F	; 127
     6fe:	8c 17       	cp	r24, r28
     700:	9d 07       	cpc	r25, r29
     702:	09 f0       	breq	.+2      	; 0x706 <LCD_voidSendData+0x70>
     704:	41 e0       	ldi	r20, 0x01	; 1
     706:	80 e0       	ldi	r24, 0x00	; 0
     708:	66 e0       	ldi	r22, 0x06	; 6
     70a:	0e 94 41 01 	call	0x282	; 0x282 <DIO_WritePin>
     70e:	80 e0       	ldi	r24, 0x00	; 0
     710:	62 e0       	ldi	r22, 0x02	; 2
     712:	41 e0       	ldi	r20, 0x01	; 1
     714:	0e 94 41 01 	call	0x282	; 0x282 <DIO_WritePin>
     718:	80 ed       	ldi	r24, 0xD0	; 208
     71a:	97 e0       	ldi	r25, 0x07	; 7
     71c:	01 97       	sbiw	r24, 0x01	; 1
     71e:	f1 f7       	brne	.-4      	; 0x71c <LCD_voidSendData+0x86>
     720:	80 e0       	ldi	r24, 0x00	; 0
     722:	62 e0       	ldi	r22, 0x02	; 2
     724:	40 e0       	ldi	r20, 0x00	; 0
     726:	0e 94 41 01 	call	0x282	; 0x282 <DIO_WritePin>
     72a:	12 95       	swap	r17
     72c:	10 7f       	andi	r17, 0xF0	; 240
     72e:	c1 2f       	mov	r28, r17
     730:	d0 e0       	ldi	r29, 0x00	; 0
     732:	40 e0       	ldi	r20, 0x00	; 0
     734:	ce 01       	movw	r24, r28
     736:	8f 7e       	andi	r24, 0xEF	; 239
     738:	8c 17       	cp	r24, r28
     73a:	9d 07       	cpc	r25, r29
     73c:	09 f0       	breq	.+2      	; 0x740 <LCD_voidSendData+0xaa>
     73e:	41 e0       	ldi	r20, 0x01	; 1
     740:	80 e0       	ldi	r24, 0x00	; 0
     742:	63 e0       	ldi	r22, 0x03	; 3
     744:	0e 94 41 01 	call	0x282	; 0x282 <DIO_WritePin>
     748:	40 e0       	ldi	r20, 0x00	; 0
     74a:	ce 01       	movw	r24, r28
     74c:	8f 7d       	andi	r24, 0xDF	; 223
     74e:	8c 17       	cp	r24, r28
     750:	9d 07       	cpc	r25, r29
     752:	09 f0       	breq	.+2      	; 0x756 <LCD_voidSendData+0xc0>
     754:	41 e0       	ldi	r20, 0x01	; 1
     756:	80 e0       	ldi	r24, 0x00	; 0
     758:	64 e0       	ldi	r22, 0x04	; 4
     75a:	0e 94 41 01 	call	0x282	; 0x282 <DIO_WritePin>
     75e:	40 e0       	ldi	r20, 0x00	; 0
     760:	ce 01       	movw	r24, r28
     762:	8f 7b       	andi	r24, 0xBF	; 191
     764:	8c 17       	cp	r24, r28
     766:	9d 07       	cpc	r25, r29
     768:	09 f0       	breq	.+2      	; 0x76c <LCD_voidSendData+0xd6>
     76a:	41 e0       	ldi	r20, 0x01	; 1
     76c:	80 e0       	ldi	r24, 0x00	; 0
     76e:	65 e0       	ldi	r22, 0x05	; 5
     770:	0e 94 41 01 	call	0x282	; 0x282 <DIO_WritePin>
     774:	40 e0       	ldi	r20, 0x00	; 0
     776:	ce 01       	movw	r24, r28
     778:	8f 77       	andi	r24, 0x7F	; 127
     77a:	8c 17       	cp	r24, r28
     77c:	9d 07       	cpc	r25, r29
     77e:	09 f0       	breq	.+2      	; 0x782 <LCD_voidSendData+0xec>
     780:	41 e0       	ldi	r20, 0x01	; 1
     782:	80 e0       	ldi	r24, 0x00	; 0
     784:	66 e0       	ldi	r22, 0x06	; 6
     786:	0e 94 41 01 	call	0x282	; 0x282 <DIO_WritePin>
     78a:	80 e0       	ldi	r24, 0x00	; 0
     78c:	62 e0       	ldi	r22, 0x02	; 2
     78e:	41 e0       	ldi	r20, 0x01	; 1
     790:	0e 94 41 01 	call	0x282	; 0x282 <DIO_WritePin>
     794:	80 ed       	ldi	r24, 0xD0	; 208
     796:	97 e0       	ldi	r25, 0x07	; 7
     798:	01 97       	sbiw	r24, 0x01	; 1
     79a:	f1 f7       	brne	.-4      	; 0x798 <LCD_voidSendData+0x102>
     79c:	80 e0       	ldi	r24, 0x00	; 0
     79e:	62 e0       	ldi	r22, 0x02	; 2
     7a0:	40 e0       	ldi	r20, 0x00	; 0
     7a2:	0e 94 41 01 	call	0x282	; 0x282 <DIO_WritePin>
     7a6:	80 ea       	ldi	r24, 0xA0	; 160
     7a8:	9f e0       	ldi	r25, 0x0F	; 15
     7aa:	01 97       	sbiw	r24, 0x01	; 1
     7ac:	f1 f7       	brne	.-4      	; 0x7aa <LCD_voidSendData+0x114>
     7ae:	df 91       	pop	r29
     7b0:	cf 91       	pop	r28
     7b2:	1f 91       	pop	r17
     7b4:	08 95       	ret

000007b6 <LCD_voidDisplayNumber>:
     7b6:	6f 92       	push	r6
     7b8:	7f 92       	push	r7
     7ba:	8f 92       	push	r8
     7bc:	9f 92       	push	r9
     7be:	af 92       	push	r10
     7c0:	bf 92       	push	r11
     7c2:	cf 92       	push	r12
     7c4:	df 92       	push	r13
     7c6:	ef 92       	push	r14
     7c8:	ff 92       	push	r15
     7ca:	0f 93       	push	r16
     7cc:	1f 93       	push	r17
     7ce:	3b 01       	movw	r6, r22
     7d0:	4c 01       	movw	r8, r24
     7d2:	61 15       	cp	r22, r1
     7d4:	71 05       	cpc	r23, r1
     7d6:	81 05       	cpc	r24, r1
     7d8:	91 05       	cpc	r25, r1
     7da:	19 f4       	brne	.+6      	; 0x7e2 <LCD_voidDisplayNumber+0x2c>
     7dc:	80 e3       	ldi	r24, 0x30	; 48
     7de:	0e 94 4b 03 	call	0x696	; 0x696 <LCD_voidSendData>
     7e2:	81 e0       	ldi	r24, 0x01	; 1
     7e4:	a8 2e       	mov	r10, r24
     7e6:	b1 2c       	mov	r11, r1
     7e8:	c1 2c       	mov	r12, r1
     7ea:	d1 2c       	mov	r13, r1
     7ec:	20 c0       	rjmp	.+64     	; 0x82e <LCD_voidDisplayNumber+0x78>
     7ee:	c6 01       	movw	r24, r12
     7f0:	b5 01       	movw	r22, r10
     7f2:	2a e0       	ldi	r18, 0x0A	; 10
     7f4:	30 e0       	ldi	r19, 0x00	; 0
     7f6:	40 e0       	ldi	r20, 0x00	; 0
     7f8:	50 e0       	ldi	r21, 0x00	; 0
     7fa:	0e 94 36 1a 	call	0x346c	; 0x346c <__mulsi3>
     7fe:	7b 01       	movw	r14, r22
     800:	8c 01       	movw	r16, r24
     802:	c4 01       	movw	r24, r8
     804:	b3 01       	movw	r22, r6
     806:	0e 94 75 1a 	call	0x34ea	; 0x34ea <__udivmodsi4>
     80a:	5b 01       	movw	r10, r22
     80c:	6c 01       	movw	r12, r24
     80e:	ae 0c       	add	r10, r14
     810:	bf 1c       	adc	r11, r15
     812:	c0 1e       	adc	r12, r16
     814:	d1 1e       	adc	r13, r17
     816:	c4 01       	movw	r24, r8
     818:	b3 01       	movw	r22, r6
     81a:	2a e0       	ldi	r18, 0x0A	; 10
     81c:	30 e0       	ldi	r19, 0x00	; 0
     81e:	40 e0       	ldi	r20, 0x00	; 0
     820:	50 e0       	ldi	r21, 0x00	; 0
     822:	0e 94 75 1a 	call	0x34ea	; 0x34ea <__udivmodsi4>
     826:	c9 01       	movw	r24, r18
     828:	da 01       	movw	r26, r20
     82a:	3c 01       	movw	r6, r24
     82c:	4d 01       	movw	r8, r26
     82e:	61 14       	cp	r6, r1
     830:	71 04       	cpc	r7, r1
     832:	81 04       	cpc	r8, r1
     834:	91 04       	cpc	r9, r1
     836:	d9 f6       	brne	.-74     	; 0x7ee <LCD_voidDisplayNumber+0x38>
     838:	18 c0       	rjmp	.+48     	; 0x86a <__stack+0xb>
     83a:	c6 01       	movw	r24, r12
     83c:	b5 01       	movw	r22, r10
     83e:	2a e0       	ldi	r18, 0x0A	; 10
     840:	30 e0       	ldi	r19, 0x00	; 0
     842:	40 e0       	ldi	r20, 0x00	; 0
     844:	50 e0       	ldi	r21, 0x00	; 0
     846:	0e 94 75 1a 	call	0x34ea	; 0x34ea <__udivmodsi4>
     84a:	86 2f       	mov	r24, r22
     84c:	80 5d       	subi	r24, 0xD0	; 208
     84e:	0e 94 4b 03 	call	0x696	; 0x696 <LCD_voidSendData>
     852:	c6 01       	movw	r24, r12
     854:	b5 01       	movw	r22, r10
     856:	2a e0       	ldi	r18, 0x0A	; 10
     858:	30 e0       	ldi	r19, 0x00	; 0
     85a:	40 e0       	ldi	r20, 0x00	; 0
     85c:	50 e0       	ldi	r21, 0x00	; 0
     85e:	0e 94 75 1a 	call	0x34ea	; 0x34ea <__udivmodsi4>
     862:	c9 01       	movw	r24, r18
     864:	da 01       	movw	r26, r20
     866:	5c 01       	movw	r10, r24
     868:	6d 01       	movw	r12, r26
     86a:	81 e0       	ldi	r24, 0x01	; 1
     86c:	a8 16       	cp	r10, r24
     86e:	b1 04       	cpc	r11, r1
     870:	c1 04       	cpc	r12, r1
     872:	d1 04       	cpc	r13, r1
     874:	11 f7       	brne	.-60     	; 0x83a <LCD_voidDisplayNumber+0x84>
     876:	1f 91       	pop	r17
     878:	0f 91       	pop	r16
     87a:	ff 90       	pop	r15
     87c:	ef 90       	pop	r14
     87e:	df 90       	pop	r13
     880:	cf 90       	pop	r12
     882:	bf 90       	pop	r11
     884:	af 90       	pop	r10
     886:	9f 90       	pop	r9
     888:	8f 90       	pop	r8
     88a:	7f 90       	pop	r7
     88c:	6f 90       	pop	r6
     88e:	08 95       	ret

00000890 <LCD_voidSendString>:
     890:	1f 93       	push	r17
     892:	cf 93       	push	r28
     894:	df 93       	push	r29
     896:	ec 01       	movw	r28, r24
     898:	10 e0       	ldi	r17, 0x00	; 0
     89a:	03 c0       	rjmp	.+6      	; 0x8a2 <LCD_voidSendString+0x12>
     89c:	0e 94 4b 03 	call	0x696	; 0x696 <LCD_voidSendData>
     8a0:	1f 5f       	subi	r17, 0xFF	; 255
     8a2:	fe 01       	movw	r30, r28
     8a4:	e1 0f       	add	r30, r17
     8a6:	f1 1d       	adc	r31, r1
     8a8:	80 81       	ld	r24, Z
     8aa:	88 23       	and	r24, r24
     8ac:	b9 f7       	brne	.-18     	; 0x89c <LCD_voidSendString+0xc>
     8ae:	df 91       	pop	r29
     8b0:	cf 91       	pop	r28
     8b2:	1f 91       	pop	r17
     8b4:	08 95       	ret

000008b6 <LCD_voidSendCommand>:
     8b6:	1f 93       	push	r17
     8b8:	cf 93       	push	r28
     8ba:	df 93       	push	r29
     8bc:	18 2f       	mov	r17, r24
     8be:	80 e0       	ldi	r24, 0x00	; 0
     8c0:	60 e0       	ldi	r22, 0x00	; 0
     8c2:	40 e0       	ldi	r20, 0x00	; 0
     8c4:	0e 94 41 01 	call	0x282	; 0x282 <DIO_WritePin>
     8c8:	80 e0       	ldi	r24, 0x00	; 0
     8ca:	61 e0       	ldi	r22, 0x01	; 1
     8cc:	40 e0       	ldi	r20, 0x00	; 0
     8ce:	0e 94 41 01 	call	0x282	; 0x282 <DIO_WritePin>
     8d2:	c1 2f       	mov	r28, r17
     8d4:	d0 e0       	ldi	r29, 0x00	; 0
     8d6:	40 e0       	ldi	r20, 0x00	; 0
     8d8:	ce 01       	movw	r24, r28
     8da:	8f 7e       	andi	r24, 0xEF	; 239
     8dc:	8c 17       	cp	r24, r28
     8de:	9d 07       	cpc	r25, r29
     8e0:	09 f0       	breq	.+2      	; 0x8e4 <LCD_voidSendCommand+0x2e>
     8e2:	41 e0       	ldi	r20, 0x01	; 1
     8e4:	80 e0       	ldi	r24, 0x00	; 0
     8e6:	63 e0       	ldi	r22, 0x03	; 3
     8e8:	0e 94 41 01 	call	0x282	; 0x282 <DIO_WritePin>
     8ec:	40 e0       	ldi	r20, 0x00	; 0
     8ee:	ce 01       	movw	r24, r28
     8f0:	8f 7d       	andi	r24, 0xDF	; 223
     8f2:	8c 17       	cp	r24, r28
     8f4:	9d 07       	cpc	r25, r29
     8f6:	09 f0       	breq	.+2      	; 0x8fa <LCD_voidSendCommand+0x44>
     8f8:	41 e0       	ldi	r20, 0x01	; 1
     8fa:	80 e0       	ldi	r24, 0x00	; 0
     8fc:	64 e0       	ldi	r22, 0x04	; 4
     8fe:	0e 94 41 01 	call	0x282	; 0x282 <DIO_WritePin>
     902:	40 e0       	ldi	r20, 0x00	; 0
     904:	ce 01       	movw	r24, r28
     906:	8f 7b       	andi	r24, 0xBF	; 191
     908:	8c 17       	cp	r24, r28
     90a:	9d 07       	cpc	r25, r29
     90c:	09 f0       	breq	.+2      	; 0x910 <LCD_voidSendCommand+0x5a>
     90e:	41 e0       	ldi	r20, 0x01	; 1
     910:	80 e0       	ldi	r24, 0x00	; 0
     912:	65 e0       	ldi	r22, 0x05	; 5
     914:	0e 94 41 01 	call	0x282	; 0x282 <DIO_WritePin>
     918:	40 e0       	ldi	r20, 0x00	; 0
     91a:	ce 01       	movw	r24, r28
     91c:	8f 77       	andi	r24, 0x7F	; 127
     91e:	8c 17       	cp	r24, r28
     920:	9d 07       	cpc	r25, r29
     922:	09 f0       	breq	.+2      	; 0x926 <LCD_voidSendCommand+0x70>
     924:	41 e0       	ldi	r20, 0x01	; 1
     926:	80 e0       	ldi	r24, 0x00	; 0
     928:	66 e0       	ldi	r22, 0x06	; 6
     92a:	0e 94 41 01 	call	0x282	; 0x282 <DIO_WritePin>
     92e:	80 e0       	ldi	r24, 0x00	; 0
     930:	62 e0       	ldi	r22, 0x02	; 2
     932:	41 e0       	ldi	r20, 0x01	; 1
     934:	0e 94 41 01 	call	0x282	; 0x282 <DIO_WritePin>
     938:	80 ed       	ldi	r24, 0xD0	; 208
     93a:	97 e0       	ldi	r25, 0x07	; 7
     93c:	01 97       	sbiw	r24, 0x01	; 1
     93e:	f1 f7       	brne	.-4      	; 0x93c <LCD_voidSendCommand+0x86>
     940:	80 e0       	ldi	r24, 0x00	; 0
     942:	62 e0       	ldi	r22, 0x02	; 2
     944:	40 e0       	ldi	r20, 0x00	; 0
     946:	0e 94 41 01 	call	0x282	; 0x282 <DIO_WritePin>
     94a:	80 91 a8 01 	lds	r24, 0x01A8
     94e:	88 23       	and	r24, r24
     950:	09 f4       	brne	.+2      	; 0x954 <LCD_voidSendCommand+0x9e>
     952:	3e c0       	rjmp	.+124    	; 0x9d0 <LCD_voidSendCommand+0x11a>
     954:	12 95       	swap	r17
     956:	10 7f       	andi	r17, 0xF0	; 240
     958:	c1 2f       	mov	r28, r17
     95a:	d0 e0       	ldi	r29, 0x00	; 0
     95c:	40 e0       	ldi	r20, 0x00	; 0
     95e:	ce 01       	movw	r24, r28
     960:	8f 7e       	andi	r24, 0xEF	; 239
     962:	8c 17       	cp	r24, r28
     964:	9d 07       	cpc	r25, r29
     966:	09 f0       	breq	.+2      	; 0x96a <LCD_voidSendCommand+0xb4>
     968:	41 e0       	ldi	r20, 0x01	; 1
     96a:	80 e0       	ldi	r24, 0x00	; 0
     96c:	63 e0       	ldi	r22, 0x03	; 3
     96e:	0e 94 41 01 	call	0x282	; 0x282 <DIO_WritePin>
     972:	40 e0       	ldi	r20, 0x00	; 0
     974:	ce 01       	movw	r24, r28
     976:	8f 7d       	andi	r24, 0xDF	; 223
     978:	8c 17       	cp	r24, r28
     97a:	9d 07       	cpc	r25, r29
     97c:	09 f0       	breq	.+2      	; 0x980 <LCD_voidSendCommand+0xca>
     97e:	41 e0       	ldi	r20, 0x01	; 1
     980:	80 e0       	ldi	r24, 0x00	; 0
     982:	64 e0       	ldi	r22, 0x04	; 4
     984:	0e 94 41 01 	call	0x282	; 0x282 <DIO_WritePin>
     988:	40 e0       	ldi	r20, 0x00	; 0
     98a:	ce 01       	movw	r24, r28
     98c:	8f 7b       	andi	r24, 0xBF	; 191
     98e:	8c 17       	cp	r24, r28
     990:	9d 07       	cpc	r25, r29
     992:	09 f0       	breq	.+2      	; 0x996 <LCD_voidSendCommand+0xe0>
     994:	41 e0       	ldi	r20, 0x01	; 1
     996:	80 e0       	ldi	r24, 0x00	; 0
     998:	65 e0       	ldi	r22, 0x05	; 5
     99a:	0e 94 41 01 	call	0x282	; 0x282 <DIO_WritePin>
     99e:	40 e0       	ldi	r20, 0x00	; 0
     9a0:	ce 01       	movw	r24, r28
     9a2:	8f 77       	andi	r24, 0x7F	; 127
     9a4:	8c 17       	cp	r24, r28
     9a6:	9d 07       	cpc	r25, r29
     9a8:	09 f0       	breq	.+2      	; 0x9ac <LCD_voidSendCommand+0xf6>
     9aa:	41 e0       	ldi	r20, 0x01	; 1
     9ac:	80 e0       	ldi	r24, 0x00	; 0
     9ae:	66 e0       	ldi	r22, 0x06	; 6
     9b0:	0e 94 41 01 	call	0x282	; 0x282 <DIO_WritePin>
     9b4:	80 e0       	ldi	r24, 0x00	; 0
     9b6:	62 e0       	ldi	r22, 0x02	; 2
     9b8:	41 e0       	ldi	r20, 0x01	; 1
     9ba:	0e 94 41 01 	call	0x282	; 0x282 <DIO_WritePin>
     9be:	80 ed       	ldi	r24, 0xD0	; 208
     9c0:	97 e0       	ldi	r25, 0x07	; 7
     9c2:	01 97       	sbiw	r24, 0x01	; 1
     9c4:	f1 f7       	brne	.-4      	; 0x9c2 <LCD_voidSendCommand+0x10c>
     9c6:	80 e0       	ldi	r24, 0x00	; 0
     9c8:	62 e0       	ldi	r22, 0x02	; 2
     9ca:	40 e0       	ldi	r20, 0x00	; 0
     9cc:	0e 94 41 01 	call	0x282	; 0x282 <DIO_WritePin>
     9d0:	80 ea       	ldi	r24, 0xA0	; 160
     9d2:	9f e0       	ldi	r25, 0x0F	; 15
     9d4:	01 97       	sbiw	r24, 0x01	; 1
     9d6:	f1 f7       	brne	.-4      	; 0x9d4 <LCD_voidSendCommand+0x11e>
     9d8:	df 91       	pop	r29
     9da:	cf 91       	pop	r28
     9dc:	1f 91       	pop	r17
     9de:	08 95       	ret

000009e0 <LCD_voidStoreCustomChar>:
     9e0:	ff 92       	push	r15
     9e2:	0f 93       	push	r16
     9e4:	1f 93       	push	r17
     9e6:	cf 93       	push	r28
     9e8:	df 93       	push	r29
     9ea:	8c 01       	movw	r16, r24
     9ec:	68 30       	cpi	r22, 0x08	; 8
     9ee:	c8 f4       	brcc	.+50     	; 0xa22 <LCD_voidStoreCustomChar+0x42>
     9f0:	66 0f       	add	r22, r22
     9f2:	66 0f       	add	r22, r22
     9f4:	66 0f       	add	r22, r22
     9f6:	60 64       	ori	r22, 0x40	; 64
     9f8:	86 2f       	mov	r24, r22
     9fa:	88 77       	andi	r24, 0x78	; 120
     9fc:	0e 94 5b 04 	call	0x8b6	; 0x8b6 <LCD_voidSendCommand>
     a00:	c0 e0       	ldi	r28, 0x00	; 0
     a02:	d0 e0       	ldi	r29, 0x00	; 0
     a04:	90 ea       	ldi	r25, 0xA0	; 160
     a06:	f9 2e       	mov	r15, r25
     a08:	f8 01       	movw	r30, r16
     a0a:	ec 0f       	add	r30, r28
     a0c:	fd 1f       	adc	r31, r29
     a0e:	80 81       	ld	r24, Z
     a10:	0e 94 4b 03 	call	0x696	; 0x696 <LCD_voidSendData>
     a14:	8f 2d       	mov	r24, r15
     a16:	8a 95       	dec	r24
     a18:	f1 f7       	brne	.-4      	; 0xa16 <LCD_voidStoreCustomChar+0x36>
     a1a:	21 96       	adiw	r28, 0x01	; 1
     a1c:	c8 30       	cpi	r28, 0x08	; 8
     a1e:	d1 05       	cpc	r29, r1
     a20:	99 f7       	brne	.-26     	; 0xa08 <LCD_voidStoreCustomChar+0x28>
     a22:	82 e0       	ldi	r24, 0x02	; 2
     a24:	0e 94 5b 04 	call	0x8b6	; 0x8b6 <LCD_voidSendCommand>
     a28:	80 ea       	ldi	r24, 0xA0	; 160
     a2a:	9f e0       	ldi	r25, 0x0F	; 15
     a2c:	01 97       	sbiw	r24, 0x01	; 1
     a2e:	f1 f7       	brne	.-4      	; 0xa2c <LCD_voidStoreCustomChar+0x4c>
     a30:	df 91       	pop	r29
     a32:	cf 91       	pop	r28
     a34:	1f 91       	pop	r17
     a36:	0f 91       	pop	r16
     a38:	ff 90       	pop	r15
     a3a:	08 95       	ret

00000a3c <LCD_voidGoToPos>:
     a3c:	81 30       	cpi	r24, 0x01	; 1
     a3e:	19 f0       	breq	.+6      	; 0xa46 <LCD_voidGoToPos+0xa>
     a40:	82 30       	cpi	r24, 0x02	; 2
     a42:	41 f4       	brne	.+16     	; 0xa54 <LCD_voidGoToPos+0x18>
     a44:	02 c0       	rjmp	.+4      	; 0xa4a <LCD_voidGoToPos+0xe>
     a46:	61 50       	subi	r22, 0x01	; 1
     a48:	01 c0       	rjmp	.+2      	; 0xa4c <LCD_voidGoToPos+0x10>
     a4a:	61 5c       	subi	r22, 0xC1	; 193
     a4c:	86 2f       	mov	r24, r22
     a4e:	80 68       	ori	r24, 0x80	; 128
     a50:	0e 94 5b 04 	call	0x8b6	; 0x8b6 <LCD_voidSendCommand>
     a54:	80 ed       	ldi	r24, 0xD0	; 208
     a56:	97 e0       	ldi	r25, 0x07	; 7
     a58:	01 97       	sbiw	r24, 0x01	; 1
     a5a:	f1 f7       	brne	.-4      	; 0xa58 <LCD_voidGoToPos+0x1c>
     a5c:	08 95       	ret

00000a5e <LCD_voidDisplayCustomChar>:
     a5e:	1f 93       	push	r17
     a60:	18 2f       	mov	r17, r24
     a62:	86 2f       	mov	r24, r22
     a64:	64 2f       	mov	r22, r20
     a66:	0e 94 1e 05 	call	0xa3c	; 0xa3c <LCD_voidGoToPos>
     a6a:	81 2f       	mov	r24, r17
     a6c:	0e 94 4b 03 	call	0x696	; 0x696 <LCD_voidSendData>
     a70:	1f 91       	pop	r17
     a72:	08 95       	ret

00000a74 <LCD_voidClearDisplay>:
     a74:	81 e0       	ldi	r24, 0x01	; 1
     a76:	0e 94 5b 04 	call	0x8b6	; 0x8b6 <LCD_voidSendCommand>
     a7a:	80 ea       	ldi	r24, 0xA0	; 160
     a7c:	9f e0       	ldi	r25, 0x0F	; 15
     a7e:	01 97       	sbiw	r24, 0x01	; 1
     a80:	f1 f7       	brne	.-4      	; 0xa7e <LCD_voidClearDisplay+0xa>
     a82:	08 95       	ret

00000a84 <LCD_voidInit>:
     a84:	1f 93       	push	r17
     a86:	80 e0       	ldi	r24, 0x00	; 0
     a88:	63 e0       	ldi	r22, 0x03	; 3
     a8a:	41 e0       	ldi	r20, 0x01	; 1
     a8c:	20 e0       	ldi	r18, 0x00	; 0
     a8e:	0e 94 83 00 	call	0x106	; 0x106 <DIO_InitPin>
     a92:	80 e0       	ldi	r24, 0x00	; 0
     a94:	64 e0       	ldi	r22, 0x04	; 4
     a96:	41 e0       	ldi	r20, 0x01	; 1
     a98:	20 e0       	ldi	r18, 0x00	; 0
     a9a:	0e 94 83 00 	call	0x106	; 0x106 <DIO_InitPin>
     a9e:	80 e0       	ldi	r24, 0x00	; 0
     aa0:	65 e0       	ldi	r22, 0x05	; 5
     aa2:	41 e0       	ldi	r20, 0x01	; 1
     aa4:	20 e0       	ldi	r18, 0x00	; 0
     aa6:	0e 94 83 00 	call	0x106	; 0x106 <DIO_InitPin>
     aaa:	80 e0       	ldi	r24, 0x00	; 0
     aac:	66 e0       	ldi	r22, 0x06	; 6
     aae:	41 e0       	ldi	r20, 0x01	; 1
     ab0:	20 e0       	ldi	r18, 0x00	; 0
     ab2:	0e 94 83 00 	call	0x106	; 0x106 <DIO_InitPin>
     ab6:	80 e0       	ldi	r24, 0x00	; 0
     ab8:	60 e0       	ldi	r22, 0x00	; 0
     aba:	41 e0       	ldi	r20, 0x01	; 1
     abc:	20 e0       	ldi	r18, 0x00	; 0
     abe:	0e 94 83 00 	call	0x106	; 0x106 <DIO_InitPin>
     ac2:	80 e0       	ldi	r24, 0x00	; 0
     ac4:	61 e0       	ldi	r22, 0x01	; 1
     ac6:	41 e0       	ldi	r20, 0x01	; 1
     ac8:	20 e0       	ldi	r18, 0x00	; 0
     aca:	0e 94 83 00 	call	0x106	; 0x106 <DIO_InitPin>
     ace:	80 e0       	ldi	r24, 0x00	; 0
     ad0:	62 e0       	ldi	r22, 0x02	; 2
     ad2:	41 e0       	ldi	r20, 0x01	; 1
     ad4:	20 e0       	ldi	r18, 0x00	; 0
     ad6:	0e 94 83 00 	call	0x106	; 0x106 <DIO_InitPin>
     ada:	80 e6       	ldi	r24, 0x60	; 96
     adc:	9a ee       	ldi	r25, 0xEA	; 234
     ade:	01 97       	sbiw	r24, 0x01	; 1
     ae0:	f1 f7       	brne	.-4      	; 0xade <LCD_voidInit+0x5a>
     ae2:	80 e2       	ldi	r24, 0x20	; 32
     ae4:	0e 94 5b 04 	call	0x8b6	; 0x8b6 <LCD_voidSendCommand>
     ae8:	80 e2       	ldi	r24, 0x20	; 32
     aea:	0e 94 5b 04 	call	0x8b6	; 0x8b6 <LCD_voidSendCommand>
     aee:	80 e8       	ldi	r24, 0x80	; 128
     af0:	0e 94 5b 04 	call	0x8b6	; 0x8b6 <LCD_voidSendCommand>
     af4:	1a e6       	ldi	r17, 0x6A	; 106
     af6:	81 2f       	mov	r24, r17
     af8:	8a 95       	dec	r24
     afa:	f1 f7       	brne	.-4      	; 0xaf8 <LCD_voidInit+0x74>
     afc:	80 e0       	ldi	r24, 0x00	; 0
     afe:	0e 94 5b 04 	call	0x8b6	; 0x8b6 <LCD_voidSendCommand>
     b02:	80 ec       	ldi	r24, 0xC0	; 192
     b04:	0e 94 5b 04 	call	0x8b6	; 0x8b6 <LCD_voidSendCommand>
     b08:	1a 95       	dec	r17
     b0a:	f1 f7       	brne	.-4      	; 0xb08 <LCD_voidInit+0x84>
     b0c:	80 e0       	ldi	r24, 0x00	; 0
     b0e:	0e 94 5b 04 	call	0x8b6	; 0x8b6 <LCD_voidSendCommand>
     b12:	80 e1       	ldi	r24, 0x10	; 16
     b14:	0e 94 5b 04 	call	0x8b6	; 0x8b6 <LCD_voidSendCommand>
     b18:	80 ea       	ldi	r24, 0xA0	; 160
     b1a:	9f e0       	ldi	r25, 0x0F	; 15
     b1c:	01 97       	sbiw	r24, 0x01	; 1
     b1e:	f1 f7       	brne	.-4      	; 0xb1c <LCD_voidInit+0x98>
     b20:	80 e0       	ldi	r24, 0x00	; 0
     b22:	0e 94 5b 04 	call	0x8b6	; 0x8b6 <LCD_voidSendCommand>
     b26:	80 e6       	ldi	r24, 0x60	; 96
     b28:	0e 94 5b 04 	call	0x8b6	; 0x8b6 <LCD_voidSendCommand>
     b2c:	81 e0       	ldi	r24, 0x01	; 1
     b2e:	80 93 a8 01 	sts	0x01A8, r24
     b32:	1f 91       	pop	r17
     b34:	08 95       	ret

00000b36 <KEYPAD_u8GetPressedKey>:
     b36:	af 92       	push	r10
     b38:	bf 92       	push	r11
     b3a:	cf 92       	push	r12
     b3c:	df 92       	push	r13
     b3e:	ef 92       	push	r14
     b40:	ff 92       	push	r15
     b42:	0f 93       	push	r16
     b44:	1f 93       	push	r17
     b46:	cf 93       	push	r28
     b48:	df 93       	push	r29
     b4a:	20 e7       	ldi	r18, 0x70	; 112
     b4c:	c2 2e       	mov	r12, r18
     b4e:	20 e0       	ldi	r18, 0x00	; 0
     b50:	d2 2e       	mov	r13, r18
     b52:	0f ef       	ldi	r16, 0xFF	; 255
     b54:	ee 24       	eor	r14, r14
     b56:	ff 24       	eor	r15, r15
     b58:	98 ec       	ldi	r25, 0xC8	; 200
     b5a:	a9 2e       	mov	r10, r25
     b5c:	b1 2c       	mov	r11, r1
     b5e:	82 e0       	ldi	r24, 0x02	; 2
     b60:	f6 01       	movw	r30, r12
     b62:	60 81       	ld	r22, Z
     b64:	40 e0       	ldi	r20, 0x00	; 0
     b66:	0e 94 41 01 	call	0x282	; 0x282 <DIO_WritePin>
     b6a:	82 e0       	ldi	r24, 0x02	; 2
     b6c:	60 91 74 00 	lds	r22, 0x0074
     b70:	0e 94 af 01 	call	0x35e	; 0x35e <DIO_ReadPin>
     b74:	88 23       	and	r24, r24
     b76:	19 f4       	brne	.+6      	; 0xb7e <KEYPAD_u8GetPressedKey+0x48>
     b78:	c0 e0       	ldi	r28, 0x00	; 0
     b7a:	d0 e0       	ldi	r29, 0x00	; 0
     b7c:	1f c0       	rjmp	.+62     	; 0xbbc <KEYPAD_u8GetPressedKey+0x86>
     b7e:	82 e0       	ldi	r24, 0x02	; 2
     b80:	60 91 75 00 	lds	r22, 0x0075
     b84:	0e 94 af 01 	call	0x35e	; 0x35e <DIO_ReadPin>
     b88:	88 23       	and	r24, r24
     b8a:	19 f4       	brne	.+6      	; 0xb92 <KEYPAD_u8GetPressedKey+0x5c>
     b8c:	c1 e0       	ldi	r28, 0x01	; 1
     b8e:	d0 e0       	ldi	r29, 0x00	; 0
     b90:	15 c0       	rjmp	.+42     	; 0xbbc <KEYPAD_u8GetPressedKey+0x86>
     b92:	82 e0       	ldi	r24, 0x02	; 2
     b94:	60 91 76 00 	lds	r22, 0x0076
     b98:	0e 94 af 01 	call	0x35e	; 0x35e <DIO_ReadPin>
     b9c:	88 23       	and	r24, r24
     b9e:	19 f4       	brne	.+6      	; 0xba6 <KEYPAD_u8GetPressedKey+0x70>
     ba0:	c2 e0       	ldi	r28, 0x02	; 2
     ba2:	d0 e0       	ldi	r29, 0x00	; 0
     ba4:	0b c0       	rjmp	.+22     	; 0xbbc <KEYPAD_u8GetPressedKey+0x86>
     ba6:	82 e0       	ldi	r24, 0x02	; 2
     ba8:	60 91 77 00 	lds	r22, 0x0077
     bac:	0e 94 af 01 	call	0x35e	; 0x35e <DIO_ReadPin>
     bb0:	88 23       	and	r24, r24
     bb2:	11 f0       	breq	.+4      	; 0xbb8 <KEYPAD_u8GetPressedKey+0x82>
     bb4:	10 e0       	ldi	r17, 0x00	; 0
     bb6:	1e c0       	rjmp	.+60     	; 0xbf4 <KEYPAD_u8GetPressedKey+0xbe>
     bb8:	c3 e0       	ldi	r28, 0x03	; 3
     bba:	d0 e0       	ldi	r29, 0x00	; 0
     bbc:	8c ed       	ldi	r24, 0xDC	; 220
     bbe:	95 e0       	ldi	r25, 0x05	; 5
     bc0:	f5 01       	movw	r30, r10
     bc2:	31 97       	sbiw	r30, 0x01	; 1
     bc4:	f1 f7       	brne	.-4      	; 0xbc2 <KEYPAD_u8GetPressedKey+0x8c>
     bc6:	01 97       	sbiw	r24, 0x01	; 1
     bc8:	d9 f7       	brne	.-10     	; 0xbc0 <KEYPAD_u8GetPressedKey+0x8a>
     bca:	8e 01       	movw	r16, r28
     bcc:	0c 58       	subi	r16, 0x8C	; 140
     bce:	1f 4f       	sbci	r17, 0xFF	; 255
     bd0:	82 e0       	ldi	r24, 0x02	; 2
     bd2:	f8 01       	movw	r30, r16
     bd4:	60 81       	ld	r22, Z
     bd6:	0e 94 af 01 	call	0x35e	; 0x35e <DIO_ReadPin>
     bda:	88 23       	and	r24, r24
     bdc:	c9 f3       	breq	.-14     	; 0xbd0 <KEYPAD_u8GetPressedKey+0x9a>
     bde:	f7 01       	movw	r30, r14
     be0:	ee 0f       	add	r30, r30
     be2:	ff 1f       	adc	r31, r31
     be4:	ee 0f       	add	r30, r30
     be6:	ff 1f       	adc	r31, r31
     be8:	ec 0f       	add	r30, r28
     bea:	fd 1f       	adc	r31, r29
     bec:	e0 5a       	subi	r30, 0xA0	; 160
     bee:	ff 4f       	sbci	r31, 0xFF	; 255
     bf0:	00 81       	ld	r16, Z
     bf2:	11 e0       	ldi	r17, 0x01	; 1
     bf4:	82 e0       	ldi	r24, 0x02	; 2
     bf6:	f6 01       	movw	r30, r12
     bf8:	60 81       	ld	r22, Z
     bfa:	41 e0       	ldi	r20, 0x01	; 1
     bfc:	0e 94 41 01 	call	0x282	; 0x282 <DIO_WritePin>
     c00:	11 23       	and	r17, r17
     c02:	59 f4       	brne	.+22     	; 0xc1a <KEYPAD_u8GetPressedKey+0xe4>
     c04:	08 94       	sec
     c06:	e1 1c       	adc	r14, r1
     c08:	f1 1c       	adc	r15, r1
     c0a:	08 94       	sec
     c0c:	c1 1c       	adc	r12, r1
     c0e:	d1 1c       	adc	r13, r1
     c10:	f4 e0       	ldi	r31, 0x04	; 4
     c12:	ef 16       	cp	r14, r31
     c14:	f1 04       	cpc	r15, r1
     c16:	09 f0       	breq	.+2      	; 0xc1a <KEYPAD_u8GetPressedKey+0xe4>
     c18:	a2 cf       	rjmp	.-188    	; 0xb5e <KEYPAD_u8GetPressedKey+0x28>
     c1a:	80 2f       	mov	r24, r16
     c1c:	df 91       	pop	r29
     c1e:	cf 91       	pop	r28
     c20:	1f 91       	pop	r17
     c22:	0f 91       	pop	r16
     c24:	ff 90       	pop	r15
     c26:	ef 90       	pop	r14
     c28:	df 90       	pop	r13
     c2a:	cf 90       	pop	r12
     c2c:	bf 90       	pop	r11
     c2e:	af 90       	pop	r10
     c30:	08 95       	ret

00000c32 <KEYPAD_voidInit>:
     c32:	82 e0       	ldi	r24, 0x02	; 2
     c34:	60 91 70 00 	lds	r22, 0x0070
     c38:	41 e0       	ldi	r20, 0x01	; 1
     c3a:	21 e0       	ldi	r18, 0x01	; 1
     c3c:	0e 94 83 00 	call	0x106	; 0x106 <DIO_InitPin>
     c40:	82 e0       	ldi	r24, 0x02	; 2
     c42:	60 91 71 00 	lds	r22, 0x0071
     c46:	41 e0       	ldi	r20, 0x01	; 1
     c48:	21 e0       	ldi	r18, 0x01	; 1
     c4a:	0e 94 83 00 	call	0x106	; 0x106 <DIO_InitPin>
     c4e:	82 e0       	ldi	r24, 0x02	; 2
     c50:	60 91 72 00 	lds	r22, 0x0072
     c54:	41 e0       	ldi	r20, 0x01	; 1
     c56:	21 e0       	ldi	r18, 0x01	; 1
     c58:	0e 94 83 00 	call	0x106	; 0x106 <DIO_InitPin>
     c5c:	82 e0       	ldi	r24, 0x02	; 2
     c5e:	60 91 73 00 	lds	r22, 0x0073
     c62:	41 e0       	ldi	r20, 0x01	; 1
     c64:	21 e0       	ldi	r18, 0x01	; 1
     c66:	0e 94 83 00 	call	0x106	; 0x106 <DIO_InitPin>
     c6a:	82 e0       	ldi	r24, 0x02	; 2
     c6c:	60 91 74 00 	lds	r22, 0x0074
     c70:	40 e0       	ldi	r20, 0x00	; 0
     c72:	21 e0       	ldi	r18, 0x01	; 1
     c74:	0e 94 83 00 	call	0x106	; 0x106 <DIO_InitPin>
     c78:	82 e0       	ldi	r24, 0x02	; 2
     c7a:	60 91 75 00 	lds	r22, 0x0075
     c7e:	40 e0       	ldi	r20, 0x00	; 0
     c80:	21 e0       	ldi	r18, 0x01	; 1
     c82:	0e 94 83 00 	call	0x106	; 0x106 <DIO_InitPin>
     c86:	82 e0       	ldi	r24, 0x02	; 2
     c88:	60 91 76 00 	lds	r22, 0x0076
     c8c:	40 e0       	ldi	r20, 0x00	; 0
     c8e:	21 e0       	ldi	r18, 0x01	; 1
     c90:	0e 94 83 00 	call	0x106	; 0x106 <DIO_InitPin>
     c94:	82 e0       	ldi	r24, 0x02	; 2
     c96:	60 91 77 00 	lds	r22, 0x0077
     c9a:	40 e0       	ldi	r20, 0x00	; 0
     c9c:	21 e0       	ldi	r18, 0x01	; 1
     c9e:	0e 94 83 00 	call	0x106	; 0x106 <DIO_InitPin>
     ca2:	08 95       	ret

00000ca4 <DCMOTOR_voidHBridge>:
     ca4:	80 e0       	ldi	r24, 0x00	; 0
     ca6:	60 e0       	ldi	r22, 0x00	; 0
     ca8:	41 e0       	ldi	r20, 0x01	; 1
     caa:	0e 94 41 01 	call	0x282	; 0x282 <DIO_WritePin>
     cae:	80 e0       	ldi	r24, 0x00	; 0
     cb0:	61 e0       	ldi	r22, 0x01	; 1
     cb2:	40 e0       	ldi	r20, 0x00	; 0
     cb4:	0e 94 41 01 	call	0x282	; 0x282 <DIO_WritePin>
     cb8:	80 e1       	ldi	r24, 0x10	; 16
     cba:	97 e2       	ldi	r25, 0x27	; 39
     cbc:	28 ec       	ldi	r18, 0xC8	; 200
     cbe:	30 e0       	ldi	r19, 0x00	; 0
     cc0:	f9 01       	movw	r30, r18
     cc2:	31 97       	sbiw	r30, 0x01	; 1
     cc4:	f1 f7       	brne	.-4      	; 0xcc2 <DCMOTOR_voidHBridge+0x1e>
     cc6:	01 97       	sbiw	r24, 0x01	; 1
     cc8:	d9 f7       	brne	.-10     	; 0xcc0 <DCMOTOR_voidHBridge+0x1c>
     cca:	80 e0       	ldi	r24, 0x00	; 0
     ccc:	60 e0       	ldi	r22, 0x00	; 0
     cce:	40 e0       	ldi	r20, 0x00	; 0
     cd0:	0e 94 41 01 	call	0x282	; 0x282 <DIO_WritePin>
     cd4:	80 e0       	ldi	r24, 0x00	; 0
     cd6:	61 e0       	ldi	r22, 0x01	; 1
     cd8:	41 e0       	ldi	r20, 0x01	; 1
     cda:	0e 94 41 01 	call	0x282	; 0x282 <DIO_WritePin>
     cde:	80 e1       	ldi	r24, 0x10	; 16
     ce0:	97 e2       	ldi	r25, 0x27	; 39
     ce2:	28 ec       	ldi	r18, 0xC8	; 200
     ce4:	30 e0       	ldi	r19, 0x00	; 0
     ce6:	f9 01       	movw	r30, r18
     ce8:	31 97       	sbiw	r30, 0x01	; 1
     cea:	f1 f7       	brne	.-4      	; 0xce8 <DCMOTOR_voidHBridge+0x44>
     cec:	01 97       	sbiw	r24, 0x01	; 1
     cee:	d9 f7       	brne	.-10     	; 0xce6 <DCMOTOR_voidHBridge+0x42>
     cf0:	08 95       	ret

00000cf2 <DCMOTOR_voidInit>:
     cf2:	80 e0       	ldi	r24, 0x00	; 0
     cf4:	60 e0       	ldi	r22, 0x00	; 0
     cf6:	41 e0       	ldi	r20, 0x01	; 1
     cf8:	20 e0       	ldi	r18, 0x00	; 0
     cfa:	0e 94 83 00 	call	0x106	; 0x106 <DIO_InitPin>
     cfe:	80 e0       	ldi	r24, 0x00	; 0
     d00:	61 e0       	ldi	r22, 0x01	; 1
     d02:	41 e0       	ldi	r20, 0x01	; 1
     d04:	20 e0       	ldi	r18, 0x00	; 0
     d06:	0e 94 83 00 	call	0x106	; 0x106 <DIO_InitPin>
     d0a:	08 95       	ret

00000d0c <STEP_voidMotorAngle>:
     d0c:	cf 92       	push	r12
     d0e:	df 92       	push	r13
     d10:	ef 92       	push	r14
     d12:	ff 92       	push	r15
     d14:	0f 93       	push	r16
     d16:	1f 93       	push	r17
     d18:	cf 93       	push	r28
     d1a:	df 93       	push	r29
     d1c:	2b e0       	ldi	r18, 0x0B	; 11
     d1e:	66 0f       	add	r22, r22
     d20:	77 1f       	adc	r23, r23
     d22:	88 1f       	adc	r24, r24
     d24:	99 1f       	adc	r25, r25
     d26:	2a 95       	dec	r18
     d28:	d1 f7       	brne	.-12     	; 0xd1e <STEP_voidMotorAngle+0x12>
     d2a:	28 e6       	ldi	r18, 0x68	; 104
     d2c:	31 e0       	ldi	r19, 0x01	; 1
     d2e:	40 e0       	ldi	r20, 0x00	; 0
     d30:	50 e0       	ldi	r21, 0x00	; 0
     d32:	0e 94 75 1a 	call	0x34ea	; 0x34ea <__udivmodsi4>
     d36:	79 01       	movw	r14, r18
     d38:	8a 01       	movw	r16, r20
     d3a:	92 e0       	ldi	r25, 0x02	; 2
     d3c:	16 95       	lsr	r17
     d3e:	07 95       	ror	r16
     d40:	f7 94       	ror	r15
     d42:	e7 94       	ror	r14
     d44:	9a 95       	dec	r25
     d46:	d1 f7       	brne	.-12     	; 0xd3c <STEP_voidMotorAngle+0x30>
     d48:	c0 e0       	ldi	r28, 0x00	; 0
     d4a:	d0 e0       	ldi	r29, 0x00	; 0
     d4c:	80 e2       	ldi	r24, 0x20	; 32
     d4e:	c8 2e       	mov	r12, r24
     d50:	8e e4       	ldi	r24, 0x4E	; 78
     d52:	d8 2e       	mov	r13, r24
     d54:	5d c0       	rjmp	.+186    	; 0xe10 <STEP_voidMotorAngle+0x104>
     d56:	80 e0       	ldi	r24, 0x00	; 0
     d58:	60 e0       	ldi	r22, 0x00	; 0
     d5a:	41 e0       	ldi	r20, 0x01	; 1
     d5c:	0e 94 41 01 	call	0x282	; 0x282 <DIO_WritePin>
     d60:	80 e0       	ldi	r24, 0x00	; 0
     d62:	61 e0       	ldi	r22, 0x01	; 1
     d64:	40 e0       	ldi	r20, 0x00	; 0
     d66:	0e 94 41 01 	call	0x282	; 0x282 <DIO_WritePin>
     d6a:	80 e0       	ldi	r24, 0x00	; 0
     d6c:	62 e0       	ldi	r22, 0x02	; 2
     d6e:	41 e0       	ldi	r20, 0x01	; 1
     d70:	0e 94 41 01 	call	0x282	; 0x282 <DIO_WritePin>
     d74:	80 e0       	ldi	r24, 0x00	; 0
     d76:	63 e0       	ldi	r22, 0x03	; 3
     d78:	41 e0       	ldi	r20, 0x01	; 1
     d7a:	0e 94 41 01 	call	0x282	; 0x282 <DIO_WritePin>
     d7e:	c6 01       	movw	r24, r12
     d80:	01 97       	sbiw	r24, 0x01	; 1
     d82:	f1 f7       	brne	.-4      	; 0xd80 <STEP_voidMotorAngle+0x74>
     d84:	80 e0       	ldi	r24, 0x00	; 0
     d86:	60 e0       	ldi	r22, 0x00	; 0
     d88:	41 e0       	ldi	r20, 0x01	; 1
     d8a:	0e 94 41 01 	call	0x282	; 0x282 <DIO_WritePin>
     d8e:	80 e0       	ldi	r24, 0x00	; 0
     d90:	61 e0       	ldi	r22, 0x01	; 1
     d92:	41 e0       	ldi	r20, 0x01	; 1
     d94:	0e 94 41 01 	call	0x282	; 0x282 <DIO_WritePin>
     d98:	80 e0       	ldi	r24, 0x00	; 0
     d9a:	62 e0       	ldi	r22, 0x02	; 2
     d9c:	40 e0       	ldi	r20, 0x00	; 0
     d9e:	0e 94 41 01 	call	0x282	; 0x282 <DIO_WritePin>
     da2:	80 e0       	ldi	r24, 0x00	; 0
     da4:	63 e0       	ldi	r22, 0x03	; 3
     da6:	41 e0       	ldi	r20, 0x01	; 1
     da8:	0e 94 41 01 	call	0x282	; 0x282 <DIO_WritePin>
     dac:	c6 01       	movw	r24, r12
     dae:	01 97       	sbiw	r24, 0x01	; 1
     db0:	f1 f7       	brne	.-4      	; 0xdae <STEP_voidMotorAngle+0xa2>
     db2:	80 e0       	ldi	r24, 0x00	; 0
     db4:	60 e0       	ldi	r22, 0x00	; 0
     db6:	41 e0       	ldi	r20, 0x01	; 1
     db8:	0e 94 41 01 	call	0x282	; 0x282 <DIO_WritePin>
     dbc:	80 e0       	ldi	r24, 0x00	; 0
     dbe:	61 e0       	ldi	r22, 0x01	; 1
     dc0:	41 e0       	ldi	r20, 0x01	; 1
     dc2:	0e 94 41 01 	call	0x282	; 0x282 <DIO_WritePin>
     dc6:	80 e0       	ldi	r24, 0x00	; 0
     dc8:	62 e0       	ldi	r22, 0x02	; 2
     dca:	41 e0       	ldi	r20, 0x01	; 1
     dcc:	0e 94 41 01 	call	0x282	; 0x282 <DIO_WritePin>
     dd0:	80 e0       	ldi	r24, 0x00	; 0
     dd2:	63 e0       	ldi	r22, 0x03	; 3
     dd4:	40 e0       	ldi	r20, 0x00	; 0
     dd6:	0e 94 41 01 	call	0x282	; 0x282 <DIO_WritePin>
     dda:	c6 01       	movw	r24, r12
     ddc:	01 97       	sbiw	r24, 0x01	; 1
     dde:	f1 f7       	brne	.-4      	; 0xddc <STEP_voidMotorAngle+0xd0>
     de0:	80 e0       	ldi	r24, 0x00	; 0
     de2:	60 e0       	ldi	r22, 0x00	; 0
     de4:	40 e0       	ldi	r20, 0x00	; 0
     de6:	0e 94 41 01 	call	0x282	; 0x282 <DIO_WritePin>
     dea:	80 e0       	ldi	r24, 0x00	; 0
     dec:	61 e0       	ldi	r22, 0x01	; 1
     dee:	41 e0       	ldi	r20, 0x01	; 1
     df0:	0e 94 41 01 	call	0x282	; 0x282 <DIO_WritePin>
     df4:	80 e0       	ldi	r24, 0x00	; 0
     df6:	62 e0       	ldi	r22, 0x02	; 2
     df8:	41 e0       	ldi	r20, 0x01	; 1
     dfa:	0e 94 41 01 	call	0x282	; 0x282 <DIO_WritePin>
     dfe:	80 e0       	ldi	r24, 0x00	; 0
     e00:	63 e0       	ldi	r22, 0x03	; 3
     e02:	41 e0       	ldi	r20, 0x01	; 1
     e04:	0e 94 41 01 	call	0x282	; 0x282 <DIO_WritePin>
     e08:	c6 01       	movw	r24, r12
     e0a:	01 97       	sbiw	r24, 0x01	; 1
     e0c:	f1 f7       	brne	.-4      	; 0xe0a <STEP_voidMotorAngle+0xfe>
     e0e:	21 96       	adiw	r28, 0x01	; 1
     e10:	ce 01       	movw	r24, r28
     e12:	a0 e0       	ldi	r26, 0x00	; 0
     e14:	b0 e0       	ldi	r27, 0x00	; 0
     e16:	8e 15       	cp	r24, r14
     e18:	9f 05       	cpc	r25, r15
     e1a:	a0 07       	cpc	r26, r16
     e1c:	b1 07       	cpc	r27, r17
     e1e:	08 f4       	brcc	.+2      	; 0xe22 <STEP_voidMotorAngle+0x116>
     e20:	9a cf       	rjmp	.-204    	; 0xd56 <STEP_voidMotorAngle+0x4a>
     e22:	df 91       	pop	r29
     e24:	cf 91       	pop	r28
     e26:	1f 91       	pop	r17
     e28:	0f 91       	pop	r16
     e2a:	ff 90       	pop	r15
     e2c:	ef 90       	pop	r14
     e2e:	df 90       	pop	r13
     e30:	cf 90       	pop	r12
     e32:	08 95       	ret

00000e34 <STEP_voidFullStep>:
     e34:	0f 93       	push	r16
     e36:	1f 93       	push	r17
     e38:	80 e0       	ldi	r24, 0x00	; 0
     e3a:	60 e0       	ldi	r22, 0x00	; 0
     e3c:	41 e0       	ldi	r20, 0x01	; 1
     e3e:	0e 94 41 01 	call	0x282	; 0x282 <DIO_WritePin>
     e42:	80 e0       	ldi	r24, 0x00	; 0
     e44:	61 e0       	ldi	r22, 0x01	; 1
     e46:	40 e0       	ldi	r20, 0x00	; 0
     e48:	0e 94 41 01 	call	0x282	; 0x282 <DIO_WritePin>
     e4c:	80 e0       	ldi	r24, 0x00	; 0
     e4e:	62 e0       	ldi	r22, 0x02	; 2
     e50:	41 e0       	ldi	r20, 0x01	; 1
     e52:	0e 94 41 01 	call	0x282	; 0x282 <DIO_WritePin>
     e56:	80 e0       	ldi	r24, 0x00	; 0
     e58:	63 e0       	ldi	r22, 0x03	; 3
     e5a:	41 e0       	ldi	r20, 0x01	; 1
     e5c:	0e 94 41 01 	call	0x282	; 0x282 <DIO_WritePin>
     e60:	00 e2       	ldi	r16, 0x20	; 32
     e62:	1e e4       	ldi	r17, 0x4E	; 78
     e64:	c8 01       	movw	r24, r16
     e66:	01 97       	sbiw	r24, 0x01	; 1
     e68:	f1 f7       	brne	.-4      	; 0xe66 <STEP_voidFullStep+0x32>
     e6a:	80 e0       	ldi	r24, 0x00	; 0
     e6c:	60 e0       	ldi	r22, 0x00	; 0
     e6e:	41 e0       	ldi	r20, 0x01	; 1
     e70:	0e 94 41 01 	call	0x282	; 0x282 <DIO_WritePin>
     e74:	80 e0       	ldi	r24, 0x00	; 0
     e76:	61 e0       	ldi	r22, 0x01	; 1
     e78:	41 e0       	ldi	r20, 0x01	; 1
     e7a:	0e 94 41 01 	call	0x282	; 0x282 <DIO_WritePin>
     e7e:	80 e0       	ldi	r24, 0x00	; 0
     e80:	62 e0       	ldi	r22, 0x02	; 2
     e82:	40 e0       	ldi	r20, 0x00	; 0
     e84:	0e 94 41 01 	call	0x282	; 0x282 <DIO_WritePin>
     e88:	80 e0       	ldi	r24, 0x00	; 0
     e8a:	63 e0       	ldi	r22, 0x03	; 3
     e8c:	41 e0       	ldi	r20, 0x01	; 1
     e8e:	0e 94 41 01 	call	0x282	; 0x282 <DIO_WritePin>
     e92:	c8 01       	movw	r24, r16
     e94:	01 97       	sbiw	r24, 0x01	; 1
     e96:	f1 f7       	brne	.-4      	; 0xe94 <STEP_voidFullStep+0x60>
     e98:	80 e0       	ldi	r24, 0x00	; 0
     e9a:	60 e0       	ldi	r22, 0x00	; 0
     e9c:	41 e0       	ldi	r20, 0x01	; 1
     e9e:	0e 94 41 01 	call	0x282	; 0x282 <DIO_WritePin>
     ea2:	80 e0       	ldi	r24, 0x00	; 0
     ea4:	61 e0       	ldi	r22, 0x01	; 1
     ea6:	41 e0       	ldi	r20, 0x01	; 1
     ea8:	0e 94 41 01 	call	0x282	; 0x282 <DIO_WritePin>
     eac:	80 e0       	ldi	r24, 0x00	; 0
     eae:	62 e0       	ldi	r22, 0x02	; 2
     eb0:	41 e0       	ldi	r20, 0x01	; 1
     eb2:	0e 94 41 01 	call	0x282	; 0x282 <DIO_WritePin>
     eb6:	80 e0       	ldi	r24, 0x00	; 0
     eb8:	63 e0       	ldi	r22, 0x03	; 3
     eba:	40 e0       	ldi	r20, 0x00	; 0
     ebc:	0e 94 41 01 	call	0x282	; 0x282 <DIO_WritePin>
     ec0:	c8 01       	movw	r24, r16
     ec2:	01 97       	sbiw	r24, 0x01	; 1
     ec4:	f1 f7       	brne	.-4      	; 0xec2 <STEP_voidFullStep+0x8e>
     ec6:	80 e0       	ldi	r24, 0x00	; 0
     ec8:	60 e0       	ldi	r22, 0x00	; 0
     eca:	40 e0       	ldi	r20, 0x00	; 0
     ecc:	0e 94 41 01 	call	0x282	; 0x282 <DIO_WritePin>
     ed0:	80 e0       	ldi	r24, 0x00	; 0
     ed2:	61 e0       	ldi	r22, 0x01	; 1
     ed4:	41 e0       	ldi	r20, 0x01	; 1
     ed6:	0e 94 41 01 	call	0x282	; 0x282 <DIO_WritePin>
     eda:	80 e0       	ldi	r24, 0x00	; 0
     edc:	62 e0       	ldi	r22, 0x02	; 2
     ede:	41 e0       	ldi	r20, 0x01	; 1
     ee0:	0e 94 41 01 	call	0x282	; 0x282 <DIO_WritePin>
     ee4:	80 e0       	ldi	r24, 0x00	; 0
     ee6:	63 e0       	ldi	r22, 0x03	; 3
     ee8:	41 e0       	ldi	r20, 0x01	; 1
     eea:	0e 94 41 01 	call	0x282	; 0x282 <DIO_WritePin>
     eee:	c8 01       	movw	r24, r16
     ef0:	01 97       	sbiw	r24, 0x01	; 1
     ef2:	f1 f7       	brne	.-4      	; 0xef0 <STEP_voidFullStep+0xbc>
     ef4:	1f 91       	pop	r17
     ef6:	0f 91       	pop	r16
     ef8:	08 95       	ret

00000efa <STEP_voidInit>:
     efa:	80 e0       	ldi	r24, 0x00	; 0
     efc:	60 e0       	ldi	r22, 0x00	; 0
     efe:	41 e0       	ldi	r20, 0x01	; 1
     f00:	20 e0       	ldi	r18, 0x00	; 0
     f02:	0e 94 83 00 	call	0x106	; 0x106 <DIO_InitPin>
     f06:	80 e0       	ldi	r24, 0x00	; 0
     f08:	61 e0       	ldi	r22, 0x01	; 1
     f0a:	41 e0       	ldi	r20, 0x01	; 1
     f0c:	20 e0       	ldi	r18, 0x00	; 0
     f0e:	0e 94 83 00 	call	0x106	; 0x106 <DIO_InitPin>
     f12:	80 e0       	ldi	r24, 0x00	; 0
     f14:	62 e0       	ldi	r22, 0x02	; 2
     f16:	41 e0       	ldi	r20, 0x01	; 1
     f18:	20 e0       	ldi	r18, 0x00	; 0
     f1a:	0e 94 83 00 	call	0x106	; 0x106 <DIO_InitPin>
     f1e:	80 e0       	ldi	r24, 0x00	; 0
     f20:	63 e0       	ldi	r22, 0x03	; 3
     f22:	41 e0       	ldi	r20, 0x01	; 1
     f24:	20 e0       	ldi	r18, 0x00	; 0
     f26:	0e 94 83 00 	call	0x106	; 0x106 <DIO_InitPin>
     f2a:	08 95       	ret

00000f2c <ADC_voidInit>:
     f2c:	97 b1       	in	r25, 0x07	; 7
     f2e:	9f 73       	andi	r25, 0x3F	; 63
     f30:	97 b9       	out	0x07, r25	; 7
     f32:	97 b1       	in	r25, 0x07	; 7
     f34:	62 95       	swap	r22
     f36:	66 0f       	add	r22, r22
     f38:	66 0f       	add	r22, r22
     f3a:	60 7c       	andi	r22, 0xC0	; 192
     f3c:	96 2b       	or	r25, r22
     f3e:	97 b9       	out	0x07, r25	; 7
     f40:	35 98       	cbi	0x06, 5	; 6
     f42:	3d 98       	cbi	0x07, 5	; 7
     f44:	34 9a       	sbi	0x06, 4	; 6
     f46:	96 b1       	in	r25, 0x06	; 6
     f48:	98 7f       	andi	r25, 0xF8	; 248
     f4a:	96 b9       	out	0x06, r25	; 6
     f4c:	96 b1       	in	r25, 0x06	; 6
     f4e:	98 2b       	or	r25, r24
     f50:	96 b9       	out	0x06, r25	; 6
     f52:	37 9a       	sbi	0x06, 7	; 6
     f54:	08 95       	ret

00000f56 <ADC_u16GetDigitalValueBlocking>:
     f56:	97 b1       	in	r25, 0x07	; 7
     f58:	90 77       	andi	r25, 0x70	; 112
     f5a:	97 b9       	out	0x07, r25	; 7
     f5c:	97 b1       	in	r25, 0x07	; 7
     f5e:	98 2b       	or	r25, r24
     f60:	97 b9       	out	0x07, r25	; 7
     f62:	36 9a       	sbi	0x06, 6	; 6
     f64:	86 b1       	in	r24, 0x06	; 6
     f66:	26 b1       	in	r18, 0x06	; 6
     f68:	90 e0       	ldi	r25, 0x00	; 0
     f6a:	8f 7b       	andi	r24, 0xBF	; 191
     f6c:	30 e0       	ldi	r19, 0x00	; 0
     f6e:	82 17       	cp	r24, r18
     f70:	93 07       	cpc	r25, r19
     f72:	c1 f7       	brne	.-16     	; 0xf64 <ADC_u16GetDigitalValueBlocking+0xe>
     f74:	34 9a       	sbi	0x06, 4	; 6
     f76:	24 b1       	in	r18, 0x04	; 4
     f78:	45 b1       	in	r20, 0x05	; 5
     f7a:	94 2f       	mov	r25, r20
     f7c:	80 e0       	ldi	r24, 0x00	; 0
     f7e:	30 e0       	ldi	r19, 0x00	; 0
     f80:	28 2b       	or	r18, r24
     f82:	39 2b       	or	r19, r25
     f84:	c9 01       	movw	r24, r18
     f86:	08 95       	ret

00000f88 <ADC_voidStartConversionAsync>:
     f88:	97 b1       	in	r25, 0x07	; 7
     f8a:	90 7e       	andi	r25, 0xE0	; 224
     f8c:	97 b9       	out	0x07, r25	; 7
     f8e:	97 b1       	in	r25, 0x07	; 7
     f90:	98 2b       	or	r25, r24
     f92:	97 b9       	out	0x07, r25	; 7
     f94:	36 9a       	sbi	0x06, 6	; 6
     f96:	08 95       	ret

00000f98 <ADC_u16GetValueNonBlocking>:
     f98:	86 b1       	in	r24, 0x06	; 6
     f9a:	26 b1       	in	r18, 0x06	; 6
     f9c:	90 e0       	ldi	r25, 0x00	; 0
     f9e:	8f 7e       	andi	r24, 0xEF	; 239
     fa0:	30 e0       	ldi	r19, 0x00	; 0
     fa2:	82 17       	cp	r24, r18
     fa4:	93 07       	cpc	r25, r19
     fa6:	19 f4       	brne	.+6      	; 0xfae <ADC_u16GetValueNonBlocking+0x16>
     fa8:	20 e0       	ldi	r18, 0x00	; 0
     faa:	30 e0       	ldi	r19, 0x00	; 0
     fac:	08 c0       	rjmp	.+16     	; 0xfbe <ADC_u16GetValueNonBlocking+0x26>
     fae:	34 b1       	in	r19, 0x04	; 4
     fb0:	25 b1       	in	r18, 0x05	; 5
     fb2:	92 2f       	mov	r25, r18
     fb4:	80 e0       	ldi	r24, 0x00	; 0
     fb6:	23 2f       	mov	r18, r19
     fb8:	30 e0       	ldi	r19, 0x00	; 0
     fba:	28 2b       	or	r18, r24
     fbc:	39 2b       	or	r19, r25
     fbe:	c9 01       	movw	r24, r18
     fc0:	08 95       	ret

00000fc2 <ADC_voidInterruptEnable>:
     fc2:	33 9a       	sbi	0x06, 3	; 6
     fc4:	08 95       	ret

00000fc6 <ADC_voidInterruptDisable>:
     fc6:	33 98       	cbi	0x06, 3	; 6
     fc8:	08 95       	ret

00000fca <ADC_voidCallBack>:
     fca:	90 93 aa 01 	sts	0x01AA, r25
     fce:	80 93 a9 01 	sts	0x01A9, r24
     fd2:	08 95       	ret

00000fd4 <__vector_16>:
     fd4:	1f 92       	push	r1
     fd6:	0f 92       	push	r0
     fd8:	0f b6       	in	r0, 0x3f	; 63
     fda:	0f 92       	push	r0
     fdc:	11 24       	eor	r1, r1
     fde:	2f 93       	push	r18
     fe0:	3f 93       	push	r19
     fe2:	4f 93       	push	r20
     fe4:	5f 93       	push	r21
     fe6:	6f 93       	push	r22
     fe8:	7f 93       	push	r23
     fea:	8f 93       	push	r24
     fec:	9f 93       	push	r25
     fee:	af 93       	push	r26
     ff0:	bf 93       	push	r27
     ff2:	ef 93       	push	r30
     ff4:	ff 93       	push	r31
     ff6:	e0 91 a9 01 	lds	r30, 0x01A9
     ffa:	f0 91 aa 01 	lds	r31, 0x01AA
     ffe:	30 97       	sbiw	r30, 0x00	; 0
    1000:	09 f0       	breq	.+2      	; 0x1004 <__vector_16+0x30>
    1002:	09 95       	icall
    1004:	ff 91       	pop	r31
    1006:	ef 91       	pop	r30
    1008:	bf 91       	pop	r27
    100a:	af 91       	pop	r26
    100c:	9f 91       	pop	r25
    100e:	8f 91       	pop	r24
    1010:	7f 91       	pop	r23
    1012:	6f 91       	pop	r22
    1014:	5f 91       	pop	r21
    1016:	4f 91       	pop	r20
    1018:	3f 91       	pop	r19
    101a:	2f 91       	pop	r18
    101c:	0f 90       	pop	r0
    101e:	0f be       	out	0x3f, r0	; 63
    1020:	0f 90       	pop	r0
    1022:	1f 90       	pop	r1
    1024:	18 95       	reti

00001026 <TIMER0_voidInit>:
    1026:	81 30       	cpi	r24, 0x01	; 1
    1028:	91 05       	cpc	r25, r1
    102a:	79 f0       	breq	.+30     	; 0x104a <TIMER0_voidInit+0x24>
    102c:	81 30       	cpi	r24, 0x01	; 1
    102e:	91 05       	cpc	r25, r1
    1030:	30 f0       	brcs	.+12     	; 0x103e <TIMER0_voidInit+0x18>
    1032:	82 30       	cpi	r24, 0x02	; 2
    1034:	91 05       	cpc	r25, r1
    1036:	91 f0       	breq	.+36     	; 0x105c <TIMER0_voidInit+0x36>
    1038:	03 97       	sbiw	r24, 0x03	; 3
    103a:	f9 f4       	brne	.+62     	; 0x107a <TIMER0_voidInit+0x54>
    103c:	15 c0       	rjmp	.+42     	; 0x1068 <TIMER0_voidInit+0x42>
    103e:	83 b7       	in	r24, 0x33	; 51
    1040:	80 68       	ori	r24, 0x80	; 128
    1042:	83 bf       	out	0x33, r24	; 51
    1044:	83 b7       	in	r24, 0x33	; 51
    1046:	8f 7b       	andi	r24, 0xBF	; 191
    1048:	05 c0       	rjmp	.+10     	; 0x1054 <TIMER0_voidInit+0x2e>
    104a:	83 b7       	in	r24, 0x33	; 51
    104c:	8f 77       	andi	r24, 0x7F	; 127
    104e:	83 bf       	out	0x33, r24	; 51
    1050:	83 b7       	in	r24, 0x33	; 51
    1052:	80 64       	ori	r24, 0x40	; 64
    1054:	83 bf       	out	0x33, r24	; 51
    1056:	83 b7       	in	r24, 0x33	; 51
    1058:	87 7f       	andi	r24, 0xF7	; 247
    105a:	0e c0       	rjmp	.+28     	; 0x1078 <TIMER0_voidInit+0x52>
    105c:	83 b7       	in	r24, 0x33	; 51
    105e:	80 68       	ori	r24, 0x80	; 128
    1060:	83 bf       	out	0x33, r24	; 51
    1062:	83 b7       	in	r24, 0x33	; 51
    1064:	8f 7b       	andi	r24, 0xBF	; 191
    1066:	05 c0       	rjmp	.+10     	; 0x1072 <TIMER0_voidInit+0x4c>
    1068:	83 b7       	in	r24, 0x33	; 51
    106a:	8f 77       	andi	r24, 0x7F	; 127
    106c:	83 bf       	out	0x33, r24	; 51
    106e:	83 b7       	in	r24, 0x33	; 51
    1070:	80 64       	ori	r24, 0x40	; 64
    1072:	83 bf       	out	0x33, r24	; 51
    1074:	83 b7       	in	r24, 0x33	; 51
    1076:	88 60       	ori	r24, 0x08	; 8
    1078:	83 bf       	out	0x33, r24	; 51
    107a:	83 b7       	in	r24, 0x33	; 51
    107c:	88 7c       	andi	r24, 0xC8	; 200
    107e:	83 bf       	out	0x33, r24	; 51
    1080:	83 b7       	in	r24, 0x33	; 51
    1082:	86 2b       	or	r24, r22
    1084:	42 95       	swap	r20
    1086:	40 7f       	andi	r20, 0xF0	; 240
    1088:	84 2b       	or	r24, r20
    108a:	83 bf       	out	0x33, r24	; 51
    108c:	08 95       	ret

0000108e <TIMER0_voidStopTimer>:
    108e:	83 b7       	in	r24, 0x33	; 51
    1090:	88 7f       	andi	r24, 0xF8	; 248
    1092:	83 bf       	out	0x33, r24	; 51
    1094:	08 95       	ret

00001096 <TIMER0_voidOverFlowInterruptEnable>:
    1096:	89 b7       	in	r24, 0x39	; 57
    1098:	81 60       	ori	r24, 0x01	; 1
    109a:	89 bf       	out	0x39, r24	; 57
    109c:	08 95       	ret

0000109e <TIMER0_voidOverFlowInterruptDisable>:
    109e:	89 b7       	in	r24, 0x39	; 57
    10a0:	8e 7f       	andi	r24, 0xFE	; 254
    10a2:	89 bf       	out	0x39, r24	; 57
    10a4:	08 95       	ret

000010a6 <TIMER0_voidCompareInterruptEnable>:
    10a6:	89 b7       	in	r24, 0x39	; 57
    10a8:	82 60       	ori	r24, 0x02	; 2
    10aa:	89 bf       	out	0x39, r24	; 57
    10ac:	08 95       	ret

000010ae <TIMER0_voidCompareInterruptDisable>:
    10ae:	89 b7       	in	r24, 0x39	; 57
    10b0:	8d 7f       	andi	r24, 0xFD	; 253
    10b2:	89 bf       	out	0x39, r24	; 57
    10b4:	08 95       	ret

000010b6 <TIMER0_voidSetPreLoad>:
    10b6:	82 bf       	out	0x32, r24	; 50
    10b8:	08 95       	ret

000010ba <TIMER0_voidSetOCR0>:
    10ba:	8c bf       	out	0x3c, r24	; 60
    10bc:	08 95       	ret

000010be <TIMER0_voidOVFSetCallBack>:
    10be:	90 93 ae 01 	sts	0x01AE, r25
    10c2:	80 93 ad 01 	sts	0x01AD, r24
    10c6:	08 95       	ret

000010c8 <TIMER0_voidCTCSetCallBack>:
    10c8:	90 93 ac 01 	sts	0x01AC, r25
    10cc:	80 93 ab 01 	sts	0x01AB, r24
    10d0:	08 95       	ret

000010d2 <__vector_11>:
    10d2:	1f 92       	push	r1
    10d4:	0f 92       	push	r0
    10d6:	0f b6       	in	r0, 0x3f	; 63
    10d8:	0f 92       	push	r0
    10da:	11 24       	eor	r1, r1
    10dc:	2f 93       	push	r18
    10de:	3f 93       	push	r19
    10e0:	4f 93       	push	r20
    10e2:	5f 93       	push	r21
    10e4:	6f 93       	push	r22
    10e6:	7f 93       	push	r23
    10e8:	8f 93       	push	r24
    10ea:	9f 93       	push	r25
    10ec:	af 93       	push	r26
    10ee:	bf 93       	push	r27
    10f0:	ef 93       	push	r30
    10f2:	ff 93       	push	r31
    10f4:	e0 91 ad 01 	lds	r30, 0x01AD
    10f8:	f0 91 ae 01 	lds	r31, 0x01AE
    10fc:	30 97       	sbiw	r30, 0x00	; 0
    10fe:	09 f0       	breq	.+2      	; 0x1102 <__vector_11+0x30>
    1100:	09 95       	icall
    1102:	ff 91       	pop	r31
    1104:	ef 91       	pop	r30
    1106:	bf 91       	pop	r27
    1108:	af 91       	pop	r26
    110a:	9f 91       	pop	r25
    110c:	8f 91       	pop	r24
    110e:	7f 91       	pop	r23
    1110:	6f 91       	pop	r22
    1112:	5f 91       	pop	r21
    1114:	4f 91       	pop	r20
    1116:	3f 91       	pop	r19
    1118:	2f 91       	pop	r18
    111a:	0f 90       	pop	r0
    111c:	0f be       	out	0x3f, r0	; 63
    111e:	0f 90       	pop	r0
    1120:	1f 90       	pop	r1
    1122:	18 95       	reti

00001124 <__vector_10>:
    1124:	1f 92       	push	r1
    1126:	0f 92       	push	r0
    1128:	0f b6       	in	r0, 0x3f	; 63
    112a:	0f 92       	push	r0
    112c:	11 24       	eor	r1, r1
    112e:	2f 93       	push	r18
    1130:	3f 93       	push	r19
    1132:	4f 93       	push	r20
    1134:	5f 93       	push	r21
    1136:	6f 93       	push	r22
    1138:	7f 93       	push	r23
    113a:	8f 93       	push	r24
    113c:	9f 93       	push	r25
    113e:	af 93       	push	r26
    1140:	bf 93       	push	r27
    1142:	ef 93       	push	r30
    1144:	ff 93       	push	r31
    1146:	e0 91 ab 01 	lds	r30, 0x01AB
    114a:	f0 91 ac 01 	lds	r31, 0x01AC
    114e:	30 97       	sbiw	r30, 0x00	; 0
    1150:	09 f0       	breq	.+2      	; 0x1154 <__vector_10+0x30>
    1152:	09 95       	icall
    1154:	ff 91       	pop	r31
    1156:	ef 91       	pop	r30
    1158:	bf 91       	pop	r27
    115a:	af 91       	pop	r26
    115c:	9f 91       	pop	r25
    115e:	8f 91       	pop	r24
    1160:	7f 91       	pop	r23
    1162:	6f 91       	pop	r22
    1164:	5f 91       	pop	r21
    1166:	4f 91       	pop	r20
    1168:	3f 91       	pop	r19
    116a:	2f 91       	pop	r18
    116c:	0f 90       	pop	r0
    116e:	0f be       	out	0x3f, r0	; 63
    1170:	0f 90       	pop	r0
    1172:	1f 90       	pop	r1
    1174:	18 95       	reti

00001176 <TIMER1_voidInit>:
    1176:	87 30       	cpi	r24, 0x07	; 7
    1178:	91 05       	cpc	r25, r1
    117a:	09 f4       	brne	.+2      	; 0x117e <TIMER1_voidInit+0x8>
    117c:	60 c0       	rjmp	.+192    	; 0x123e <TIMER1_voidInit+0xc8>
    117e:	88 30       	cpi	r24, 0x08	; 8
    1180:	91 05       	cpc	r25, r1
    1182:	a8 f4       	brcc	.+42     	; 0x11ae <TIMER1_voidInit+0x38>
    1184:	83 30       	cpi	r24, 0x03	; 3
    1186:	91 05       	cpc	r25, r1
    1188:	09 f4       	brne	.+2      	; 0x118c <TIMER1_voidInit+0x16>
    118a:	3d c0       	rjmp	.+122    	; 0x1206 <TIMER1_voidInit+0x90>
    118c:	84 30       	cpi	r24, 0x04	; 4
    118e:	91 05       	cpc	r25, r1
    1190:	30 f4       	brcc	.+12     	; 0x119e <TIMER1_voidInit+0x28>
    1192:	81 30       	cpi	r24, 0x01	; 1
    1194:	91 05       	cpc	r25, r1
    1196:	59 f1       	breq	.+86     	; 0x11ee <TIMER1_voidInit+0x78>
    1198:	02 97       	sbiw	r24, 0x02	; 2
    119a:	78 f5       	brcc	.+94     	; 0x11fa <TIMER1_voidInit+0x84>
    119c:	23 c0       	rjmp	.+70     	; 0x11e4 <TIMER1_voidInit+0x6e>
    119e:	85 30       	cpi	r24, 0x05	; 5
    11a0:	91 05       	cpc	r25, r1
    11a2:	09 f4       	brne	.+2      	; 0x11a6 <TIMER1_voidInit+0x30>
    11a4:	40 c0       	rjmp	.+128    	; 0x1226 <TIMER1_voidInit+0xb0>
    11a6:	06 97       	sbiw	r24, 0x06	; 6
    11a8:	08 f0       	brcs	.+2      	; 0x11ac <TIMER1_voidInit+0x36>
    11aa:	43 c0       	rjmp	.+134    	; 0x1232 <TIMER1_voidInit+0xbc>
    11ac:	37 c0       	rjmp	.+110    	; 0x121c <TIMER1_voidInit+0xa6>
    11ae:	8b 30       	cpi	r24, 0x0B	; 11
    11b0:	91 05       	cpc	r25, r1
    11b2:	09 f4       	brne	.+2      	; 0x11b6 <TIMER1_voidInit+0x40>
    11b4:	61 c0       	rjmp	.+194    	; 0x1278 <TIMER1_voidInit+0x102>
    11b6:	8c 30       	cpi	r24, 0x0C	; 12
    11b8:	91 05       	cpc	r25, r1
    11ba:	40 f4       	brcc	.+16     	; 0x11cc <TIMER1_voidInit+0x56>
    11bc:	89 30       	cpi	r24, 0x09	; 9
    11be:	91 05       	cpc	r25, r1
    11c0:	09 f4       	brne	.+2      	; 0x11c4 <TIMER1_voidInit+0x4e>
    11c2:	4e c0       	rjmp	.+156    	; 0x1260 <TIMER1_voidInit+0xea>
    11c4:	0a 97       	sbiw	r24, 0x0a	; 10
    11c6:	08 f0       	brcs	.+2      	; 0x11ca <TIMER1_voidInit+0x54>
    11c8:	51 c0       	rjmp	.+162    	; 0x126c <TIMER1_voidInit+0xf6>
    11ca:	45 c0       	rjmp	.+138    	; 0x1256 <TIMER1_voidInit+0xe0>
    11cc:	8d 30       	cpi	r24, 0x0D	; 13
    11ce:	91 05       	cpc	r25, r1
    11d0:	09 f4       	brne	.+2      	; 0x11d4 <TIMER1_voidInit+0x5e>
    11d2:	63 c0       	rjmp	.+198    	; 0x129a <TIMER1_voidInit+0x124>
    11d4:	8d 30       	cpi	r24, 0x0D	; 13
    11d6:	91 05       	cpc	r25, r1
    11d8:	08 f4       	brcc	.+2      	; 0x11dc <TIMER1_voidInit+0x66>
    11da:	5a c0       	rjmp	.+180    	; 0x1290 <TIMER1_voidInit+0x11a>
    11dc:	0e 97       	sbiw	r24, 0x0e	; 14
    11de:	09 f0       	breq	.+2      	; 0x11e2 <TIMER1_voidInit+0x6c>
    11e0:	6e c0       	rjmp	.+220    	; 0x12be <TIMER1_voidInit+0x148>
    11e2:	61 c0       	rjmp	.+194    	; 0x12a6 <TIMER1_voidInit+0x130>
    11e4:	8f b5       	in	r24, 0x2f	; 47
    11e6:	8c 7f       	andi	r24, 0xFC	; 252
    11e8:	8f bd       	out	0x2f, r24	; 47
    11ea:	8f b5       	in	r24, 0x2f	; 47
    11ec:	11 c0       	rjmp	.+34     	; 0x1210 <TIMER1_voidInit+0x9a>
    11ee:	8f b5       	in	r24, 0x2f	; 47
    11f0:	8c 7f       	andi	r24, 0xFC	; 252
    11f2:	8f bd       	out	0x2f, r24	; 47
    11f4:	8f b5       	in	r24, 0x2f	; 47
    11f6:	81 60       	ori	r24, 0x01	; 1
    11f8:	0b c0       	rjmp	.+22     	; 0x1210 <TIMER1_voidInit+0x9a>
    11fa:	8f b5       	in	r24, 0x2f	; 47
    11fc:	8c 7f       	andi	r24, 0xFC	; 252
    11fe:	8f bd       	out	0x2f, r24	; 47
    1200:	8f b5       	in	r24, 0x2f	; 47
    1202:	82 60       	ori	r24, 0x02	; 2
    1204:	05 c0       	rjmp	.+10     	; 0x1210 <TIMER1_voidInit+0x9a>
    1206:	8f b5       	in	r24, 0x2f	; 47
    1208:	8c 7f       	andi	r24, 0xFC	; 252
    120a:	8f bd       	out	0x2f, r24	; 47
    120c:	8f b5       	in	r24, 0x2f	; 47
    120e:	83 60       	ori	r24, 0x03	; 3
    1210:	8f bd       	out	0x2f, r24	; 47
    1212:	8e b5       	in	r24, 0x2e	; 46
    1214:	87 7e       	andi	r24, 0xE7	; 231
    1216:	8e bd       	out	0x2e, r24	; 46
    1218:	8e b5       	in	r24, 0x2e	; 46
    121a:	50 c0       	rjmp	.+160    	; 0x12bc <TIMER1_voidInit+0x146>
    121c:	8f b5       	in	r24, 0x2f	; 47
    121e:	8c 7f       	andi	r24, 0xFC	; 252
    1220:	8f bd       	out	0x2f, r24	; 47
    1222:	8f b5       	in	r24, 0x2f	; 47
    1224:	11 c0       	rjmp	.+34     	; 0x1248 <TIMER1_voidInit+0xd2>
    1226:	8f b5       	in	r24, 0x2f	; 47
    1228:	8c 7f       	andi	r24, 0xFC	; 252
    122a:	8f bd       	out	0x2f, r24	; 47
    122c:	8f b5       	in	r24, 0x2f	; 47
    122e:	81 60       	ori	r24, 0x01	; 1
    1230:	0b c0       	rjmp	.+22     	; 0x1248 <TIMER1_voidInit+0xd2>
    1232:	8f b5       	in	r24, 0x2f	; 47
    1234:	8c 7f       	andi	r24, 0xFC	; 252
    1236:	8f bd       	out	0x2f, r24	; 47
    1238:	8f b5       	in	r24, 0x2f	; 47
    123a:	82 60       	ori	r24, 0x02	; 2
    123c:	05 c0       	rjmp	.+10     	; 0x1248 <TIMER1_voidInit+0xd2>
    123e:	8f b5       	in	r24, 0x2f	; 47
    1240:	8c 7f       	andi	r24, 0xFC	; 252
    1242:	8f bd       	out	0x2f, r24	; 47
    1244:	8f b5       	in	r24, 0x2f	; 47
    1246:	83 60       	ori	r24, 0x03	; 3
    1248:	8f bd       	out	0x2f, r24	; 47
    124a:	8e b5       	in	r24, 0x2e	; 46
    124c:	87 7e       	andi	r24, 0xE7	; 231
    124e:	8e bd       	out	0x2e, r24	; 46
    1250:	8e b5       	in	r24, 0x2e	; 46
    1252:	88 60       	ori	r24, 0x08	; 8
    1254:	33 c0       	rjmp	.+102    	; 0x12bc <TIMER1_voidInit+0x146>
    1256:	8f b5       	in	r24, 0x2f	; 47
    1258:	8c 7f       	andi	r24, 0xFC	; 252
    125a:	8f bd       	out	0x2f, r24	; 47
    125c:	8f b5       	in	r24, 0x2f	; 47
    125e:	11 c0       	rjmp	.+34     	; 0x1282 <TIMER1_voidInit+0x10c>
    1260:	8f b5       	in	r24, 0x2f	; 47
    1262:	8c 7f       	andi	r24, 0xFC	; 252
    1264:	8f bd       	out	0x2f, r24	; 47
    1266:	8f b5       	in	r24, 0x2f	; 47
    1268:	81 60       	ori	r24, 0x01	; 1
    126a:	0b c0       	rjmp	.+22     	; 0x1282 <TIMER1_voidInit+0x10c>
    126c:	8f b5       	in	r24, 0x2f	; 47
    126e:	8c 7f       	andi	r24, 0xFC	; 252
    1270:	8f bd       	out	0x2f, r24	; 47
    1272:	8f b5       	in	r24, 0x2f	; 47
    1274:	82 60       	ori	r24, 0x02	; 2
    1276:	05 c0       	rjmp	.+10     	; 0x1282 <TIMER1_voidInit+0x10c>
    1278:	8f b5       	in	r24, 0x2f	; 47
    127a:	8c 7f       	andi	r24, 0xFC	; 252
    127c:	8f bd       	out	0x2f, r24	; 47
    127e:	8f b5       	in	r24, 0x2f	; 47
    1280:	83 60       	ori	r24, 0x03	; 3
    1282:	8f bd       	out	0x2f, r24	; 47
    1284:	8e b5       	in	r24, 0x2e	; 46
    1286:	87 7e       	andi	r24, 0xE7	; 231
    1288:	8e bd       	out	0x2e, r24	; 46
    128a:	8e b5       	in	r24, 0x2e	; 46
    128c:	80 61       	ori	r24, 0x10	; 16
    128e:	16 c0       	rjmp	.+44     	; 0x12bc <TIMER1_voidInit+0x146>
    1290:	8f b5       	in	r24, 0x2f	; 47
    1292:	8c 7f       	andi	r24, 0xFC	; 252
    1294:	8f bd       	out	0x2f, r24	; 47
    1296:	8f b5       	in	r24, 0x2f	; 47
    1298:	0b c0       	rjmp	.+22     	; 0x12b0 <TIMER1_voidInit+0x13a>
    129a:	8f b5       	in	r24, 0x2f	; 47
    129c:	8c 7f       	andi	r24, 0xFC	; 252
    129e:	8f bd       	out	0x2f, r24	; 47
    12a0:	8f b5       	in	r24, 0x2f	; 47
    12a2:	82 60       	ori	r24, 0x02	; 2
    12a4:	05 c0       	rjmp	.+10     	; 0x12b0 <TIMER1_voidInit+0x13a>
    12a6:	8f b5       	in	r24, 0x2f	; 47
    12a8:	8c 7f       	andi	r24, 0xFC	; 252
    12aa:	8f bd       	out	0x2f, r24	; 47
    12ac:	8f b5       	in	r24, 0x2f	; 47
    12ae:	83 60       	ori	r24, 0x03	; 3
    12b0:	8f bd       	out	0x2f, r24	; 47
    12b2:	8e b5       	in	r24, 0x2e	; 46
    12b4:	87 7e       	andi	r24, 0xE7	; 231
    12b6:	8e bd       	out	0x2e, r24	; 46
    12b8:	8e b5       	in	r24, 0x2e	; 46
    12ba:	88 61       	ori	r24, 0x18	; 24
    12bc:	8e bd       	out	0x2e, r24	; 46
    12be:	8f b5       	in	r24, 0x2f	; 47
    12c0:	8f 70       	andi	r24, 0x0F	; 15
    12c2:	8f bd       	out	0x2f, r24	; 47
    12c4:	8f b5       	in	r24, 0x2f	; 47
    12c6:	42 95       	swap	r20
    12c8:	44 0f       	add	r20, r20
    12ca:	44 0f       	add	r20, r20
    12cc:	40 7c       	andi	r20, 0xC0	; 192
    12ce:	48 2b       	or	r20, r24
    12d0:	22 95       	swap	r18
    12d2:	20 7f       	andi	r18, 0xF0	; 240
    12d4:	42 2b       	or	r20, r18
    12d6:	4f bd       	out	0x2f, r20	; 47
    12d8:	8e b5       	in	r24, 0x2e	; 46
    12da:	88 7f       	andi	r24, 0xF8	; 248
    12dc:	8e bd       	out	0x2e, r24	; 46
    12de:	8e b5       	in	r24, 0x2e	; 46
    12e0:	86 2b       	or	r24, r22
    12e2:	8e bd       	out	0x2e, r24	; 46
    12e4:	08 95       	ret

000012e6 <TIMER1_voidDisable>:
    12e6:	8e b5       	in	r24, 0x2e	; 46
    12e8:	88 7f       	andi	r24, 0xF8	; 248
    12ea:	8e bd       	out	0x2e, r24	; 46
    12ec:	08 95       	ret

000012ee <TIMER1_u16ReadTCNT1>:
    12ee:	2c b5       	in	r18, 0x2c	; 44
    12f0:	3d b5       	in	r19, 0x2d	; 45
    12f2:	c9 01       	movw	r24, r18
    12f4:	08 95       	ret

000012f6 <TIMER1_voidClearTCNT1>:
    12f6:	1d bc       	out	0x2d, r1	; 45
    12f8:	1c bc       	out	0x2c, r1	; 44
    12fa:	08 95       	ret

000012fc <TIMER1_voidInputCaptureEdge>:
    12fc:	00 97       	sbiw	r24, 0x00	; 0
    12fe:	21 f4       	brne	.+8      	; 0x1308 <TIMER1_voidInputCaptureEdge+0xc>
    1300:	8e b5       	in	r24, 0x2e	; 46
    1302:	80 64       	ori	r24, 0x40	; 64
    1304:	8e bd       	out	0x2e, r24	; 46
    1306:	08 95       	ret
    1308:	01 97       	sbiw	r24, 0x01	; 1
    130a:	19 f4       	brne	.+6      	; 0x1312 <TIMER1_voidInputCaptureEdge+0x16>
    130c:	8e b5       	in	r24, 0x2e	; 46
    130e:	8f 7b       	andi	r24, 0xBF	; 191
    1310:	8e bd       	out	0x2e, r24	; 46
    1312:	08 95       	ret

00001314 <TIMER1_voidGetICR1>:
    1314:	26 b5       	in	r18, 0x26	; 38
    1316:	37 b5       	in	r19, 0x27	; 39
    1318:	c9 01       	movw	r24, r18
    131a:	08 95       	ret

0000131c <TIMER1_voidCaptureInterruptEnable>:
    131c:	89 b7       	in	r24, 0x39	; 57
    131e:	80 62       	ori	r24, 0x20	; 32
    1320:	89 bf       	out	0x39, r24	; 57
    1322:	08 95       	ret

00001324 <TIMER1_voidCaptureInterruptDisable>:
    1324:	89 b7       	in	r24, 0x39	; 57
    1326:	8f 7d       	andi	r24, 0xDF	; 223
    1328:	89 bf       	out	0x39, r24	; 57
    132a:	08 95       	ret

0000132c <TIMER1_voidCompareAInterruptEnable>:
    132c:	89 b7       	in	r24, 0x39	; 57
    132e:	80 61       	ori	r24, 0x10	; 16
    1330:	89 bf       	out	0x39, r24	; 57
    1332:	08 95       	ret

00001334 <TIMER1_voidCompareAInterruptDisable>:
    1334:	89 b7       	in	r24, 0x39	; 57
    1336:	8f 7e       	andi	r24, 0xEF	; 239
    1338:	89 bf       	out	0x39, r24	; 57
    133a:	08 95       	ret

0000133c <TIMER1_voidCompareBInterruptEnable>:
    133c:	89 b7       	in	r24, 0x39	; 57
    133e:	88 60       	ori	r24, 0x08	; 8
    1340:	89 bf       	out	0x39, r24	; 57
    1342:	08 95       	ret

00001344 <TIMER1_voidCompareBInterruptDisable>:
    1344:	89 b7       	in	r24, 0x39	; 57
    1346:	87 7f       	andi	r24, 0xF7	; 247
    1348:	89 bf       	out	0x39, r24	; 57
    134a:	08 95       	ret

0000134c <TIMER1_voidOverFlowInterruptEnable>:
    134c:	89 b7       	in	r24, 0x39	; 57
    134e:	84 60       	ori	r24, 0x04	; 4
    1350:	89 bf       	out	0x39, r24	; 57
    1352:	08 95       	ret

00001354 <TIMER1_voidOverFlowInterruptDisable>:
    1354:	89 b7       	in	r24, 0x39	; 57
    1356:	8b 7f       	andi	r24, 0xFB	; 251
    1358:	89 bf       	out	0x39, r24	; 57
    135a:	08 95       	ret

0000135c <TIMER1_voidSetICR1Value>:
    135c:	97 bd       	out	0x27, r25	; 39
    135e:	86 bd       	out	0x26, r24	; 38
    1360:	08 95       	ret

00001362 <TIMER1_voidSetOCR1AValue>:
    1362:	9b bd       	out	0x2b, r25	; 43
    1364:	8a bd       	out	0x2a, r24	; 42
    1366:	08 95       	ret

00001368 <TIMER1_voidSetOCR1BValue>:
    1368:	99 bd       	out	0x29, r25	; 41
    136a:	88 bd       	out	0x28, r24	; 40
    136c:	08 95       	ret

0000136e <TIMER1_voidSetTCNT1Value>:
    136e:	9d bd       	out	0x2d, r25	; 45
    1370:	8c bd       	out	0x2c, r24	; 44
    1372:	08 95       	ret

00001374 <TIMER1_voidSetCallBackCapture>:
    1374:	90 93 b6 01 	sts	0x01B6, r25
    1378:	80 93 b5 01 	sts	0x01B5, r24
    137c:	08 95       	ret

0000137e <TIMER1_voidSetCallBackCOMA>:
    137e:	90 93 b4 01 	sts	0x01B4, r25
    1382:	80 93 b3 01 	sts	0x01B3, r24
    1386:	08 95       	ret

00001388 <TIMER1_voidSetCallBackCOMB>:
    1388:	90 93 b2 01 	sts	0x01B2, r25
    138c:	80 93 b1 01 	sts	0x01B1, r24
    1390:	08 95       	ret

00001392 <TIMER1_voidSetCallBackOVF>:
    1392:	90 93 b0 01 	sts	0x01B0, r25
    1396:	80 93 af 01 	sts	0x01AF, r24
    139a:	08 95       	ret

0000139c <__vector_6>:
    139c:	1f 92       	push	r1
    139e:	0f 92       	push	r0
    13a0:	0f b6       	in	r0, 0x3f	; 63
    13a2:	0f 92       	push	r0
    13a4:	11 24       	eor	r1, r1
    13a6:	2f 93       	push	r18
    13a8:	3f 93       	push	r19
    13aa:	4f 93       	push	r20
    13ac:	5f 93       	push	r21
    13ae:	6f 93       	push	r22
    13b0:	7f 93       	push	r23
    13b2:	8f 93       	push	r24
    13b4:	9f 93       	push	r25
    13b6:	af 93       	push	r26
    13b8:	bf 93       	push	r27
    13ba:	ef 93       	push	r30
    13bc:	ff 93       	push	r31
    13be:	e0 91 b5 01 	lds	r30, 0x01B5
    13c2:	f0 91 b6 01 	lds	r31, 0x01B6
    13c6:	30 97       	sbiw	r30, 0x00	; 0
    13c8:	09 f0       	breq	.+2      	; 0x13cc <__vector_6+0x30>
    13ca:	09 95       	icall
    13cc:	ff 91       	pop	r31
    13ce:	ef 91       	pop	r30
    13d0:	bf 91       	pop	r27
    13d2:	af 91       	pop	r26
    13d4:	9f 91       	pop	r25
    13d6:	8f 91       	pop	r24
    13d8:	7f 91       	pop	r23
    13da:	6f 91       	pop	r22
    13dc:	5f 91       	pop	r21
    13de:	4f 91       	pop	r20
    13e0:	3f 91       	pop	r19
    13e2:	2f 91       	pop	r18
    13e4:	0f 90       	pop	r0
    13e6:	0f be       	out	0x3f, r0	; 63
    13e8:	0f 90       	pop	r0
    13ea:	1f 90       	pop	r1
    13ec:	18 95       	reti

000013ee <__vector_7>:
    13ee:	1f 92       	push	r1
    13f0:	0f 92       	push	r0
    13f2:	0f b6       	in	r0, 0x3f	; 63
    13f4:	0f 92       	push	r0
    13f6:	11 24       	eor	r1, r1
    13f8:	2f 93       	push	r18
    13fa:	3f 93       	push	r19
    13fc:	4f 93       	push	r20
    13fe:	5f 93       	push	r21
    1400:	6f 93       	push	r22
    1402:	7f 93       	push	r23
    1404:	8f 93       	push	r24
    1406:	9f 93       	push	r25
    1408:	af 93       	push	r26
    140a:	bf 93       	push	r27
    140c:	ef 93       	push	r30
    140e:	ff 93       	push	r31
    1410:	e0 91 b3 01 	lds	r30, 0x01B3
    1414:	f0 91 b4 01 	lds	r31, 0x01B4
    1418:	30 97       	sbiw	r30, 0x00	; 0
    141a:	09 f0       	breq	.+2      	; 0x141e <__vector_7+0x30>
    141c:	09 95       	icall
    141e:	ff 91       	pop	r31
    1420:	ef 91       	pop	r30
    1422:	bf 91       	pop	r27
    1424:	af 91       	pop	r26
    1426:	9f 91       	pop	r25
    1428:	8f 91       	pop	r24
    142a:	7f 91       	pop	r23
    142c:	6f 91       	pop	r22
    142e:	5f 91       	pop	r21
    1430:	4f 91       	pop	r20
    1432:	3f 91       	pop	r19
    1434:	2f 91       	pop	r18
    1436:	0f 90       	pop	r0
    1438:	0f be       	out	0x3f, r0	; 63
    143a:	0f 90       	pop	r0
    143c:	1f 90       	pop	r1
    143e:	18 95       	reti

00001440 <__vector_8>:
    1440:	1f 92       	push	r1
    1442:	0f 92       	push	r0
    1444:	0f b6       	in	r0, 0x3f	; 63
    1446:	0f 92       	push	r0
    1448:	11 24       	eor	r1, r1
    144a:	2f 93       	push	r18
    144c:	3f 93       	push	r19
    144e:	4f 93       	push	r20
    1450:	5f 93       	push	r21
    1452:	6f 93       	push	r22
    1454:	7f 93       	push	r23
    1456:	8f 93       	push	r24
    1458:	9f 93       	push	r25
    145a:	af 93       	push	r26
    145c:	bf 93       	push	r27
    145e:	ef 93       	push	r30
    1460:	ff 93       	push	r31
    1462:	e0 91 b1 01 	lds	r30, 0x01B1
    1466:	f0 91 b2 01 	lds	r31, 0x01B2
    146a:	30 97       	sbiw	r30, 0x00	; 0
    146c:	09 f0       	breq	.+2      	; 0x1470 <__vector_8+0x30>
    146e:	09 95       	icall
    1470:	ff 91       	pop	r31
    1472:	ef 91       	pop	r30
    1474:	bf 91       	pop	r27
    1476:	af 91       	pop	r26
    1478:	9f 91       	pop	r25
    147a:	8f 91       	pop	r24
    147c:	7f 91       	pop	r23
    147e:	6f 91       	pop	r22
    1480:	5f 91       	pop	r21
    1482:	4f 91       	pop	r20
    1484:	3f 91       	pop	r19
    1486:	2f 91       	pop	r18
    1488:	0f 90       	pop	r0
    148a:	0f be       	out	0x3f, r0	; 63
    148c:	0f 90       	pop	r0
    148e:	1f 90       	pop	r1
    1490:	18 95       	reti

00001492 <__vector_9>:
    1492:	1f 92       	push	r1
    1494:	0f 92       	push	r0
    1496:	0f b6       	in	r0, 0x3f	; 63
    1498:	0f 92       	push	r0
    149a:	11 24       	eor	r1, r1
    149c:	2f 93       	push	r18
    149e:	3f 93       	push	r19
    14a0:	4f 93       	push	r20
    14a2:	5f 93       	push	r21
    14a4:	6f 93       	push	r22
    14a6:	7f 93       	push	r23
    14a8:	8f 93       	push	r24
    14aa:	9f 93       	push	r25
    14ac:	af 93       	push	r26
    14ae:	bf 93       	push	r27
    14b0:	ef 93       	push	r30
    14b2:	ff 93       	push	r31
    14b4:	e0 91 af 01 	lds	r30, 0x01AF
    14b8:	f0 91 b0 01 	lds	r31, 0x01B0
    14bc:	30 97       	sbiw	r30, 0x00	; 0
    14be:	09 f0       	breq	.+2      	; 0x14c2 <__vector_9+0x30>
    14c0:	09 95       	icall
    14c2:	ff 91       	pop	r31
    14c4:	ef 91       	pop	r30
    14c6:	bf 91       	pop	r27
    14c8:	af 91       	pop	r26
    14ca:	9f 91       	pop	r25
    14cc:	8f 91       	pop	r24
    14ce:	7f 91       	pop	r23
    14d0:	6f 91       	pop	r22
    14d2:	5f 91       	pop	r21
    14d4:	4f 91       	pop	r20
    14d6:	3f 91       	pop	r19
    14d8:	2f 91       	pop	r18
    14da:	0f 90       	pop	r0
    14dc:	0f be       	out	0x3f, r0	; 63
    14de:	0f 90       	pop	r0
    14e0:	1f 90       	pop	r1
    14e2:	18 95       	reti

000014e4 <SERVO_voidADCReading>:
    14e4:	a0 e0       	ldi	r26, 0x00	; 0
    14e6:	b0 e0       	ldi	r27, 0x00	; 0
    14e8:	bc 01       	movw	r22, r24
    14ea:	cd 01       	movw	r24, r26
    14ec:	28 ee       	ldi	r18, 0xE8	; 232
    14ee:	33 e0       	ldi	r19, 0x03	; 3
    14f0:	40 e0       	ldi	r20, 0x00	; 0
    14f2:	50 e0       	ldi	r21, 0x00	; 0
    14f4:	0e 94 36 1a 	call	0x346c	; 0x346c <__mulsi3>
    14f8:	2f ef       	ldi	r18, 0xFF	; 255
    14fa:	33 e0       	ldi	r19, 0x03	; 3
    14fc:	40 e0       	ldi	r20, 0x00	; 0
    14fe:	50 e0       	ldi	r21, 0x00	; 0
    1500:	0e 94 75 1a 	call	0x34ea	; 0x34ea <__udivmodsi4>
    1504:	da 01       	movw	r26, r20
    1506:	c9 01       	movw	r24, r18
    1508:	89 51       	subi	r24, 0x19	; 25
    150a:	9c 4f       	sbci	r25, 0xFC	; 252
    150c:	0e 94 b1 09 	call	0x1362	; 0x1362 <TIMER1_voidSetOCR1AValue>
    1510:	08 95       	ret

00001512 <SERVO_voidSetServoAngle>:
    1512:	2f 92       	push	r2
    1514:	3f 92       	push	r3
    1516:	4f 92       	push	r4
    1518:	5f 92       	push	r5
    151a:	6f 92       	push	r6
    151c:	7f 92       	push	r7
    151e:	8f 92       	push	r8
    1520:	9f 92       	push	r9
    1522:	af 92       	push	r10
    1524:	bf 92       	push	r11
    1526:	cf 92       	push	r12
    1528:	df 92       	push	r13
    152a:	ef 92       	push	r14
    152c:	ff 92       	push	r15
    152e:	0f 93       	push	r16
    1530:	1f 93       	push	r17
    1532:	df 93       	push	r29
    1534:	cf 93       	push	r28
    1536:	cd b7       	in	r28, 0x3d	; 61
    1538:	de b7       	in	r29, 0x3e	; 62
    153a:	27 97       	sbiw	r28, 0x07	; 7
    153c:	0f b6       	in	r0, 0x3f	; 63
    153e:	f8 94       	cli
    1540:	de bf       	out	0x3e, r29	; 62
    1542:	0f be       	out	0x3f, r0	; 63
    1544:	cd bf       	out	0x3d, r28	; 61
    1546:	88 2e       	mov	r8, r24
    1548:	28 2f       	mov	r18, r24
    154a:	30 e0       	ldi	r19, 0x00	; 0
    154c:	40 e0       	ldi	r20, 0x00	; 0
    154e:	50 e0       	ldi	r21, 0x00	; 0
    1550:	60 e0       	ldi	r22, 0x00	; 0
    1552:	70 e0       	ldi	r23, 0x00	; 0
    1554:	80 e0       	ldi	r24, 0x00	; 0
    1556:	90 e0       	ldi	r25, 0x00	; 0
    1558:	02 e0       	ldi	r16, 0x02	; 2
    155a:	0e 94 42 13 	call	0x2684	; 0x2684 <__ashldi3>
    155e:	12 2f       	mov	r17, r18
    1560:	63 2e       	mov	r6, r19
    1562:	44 2e       	mov	r4, r20
    1564:	25 2e       	mov	r2, r21
    1566:	69 83       	std	Y+1, r22	; 0x01
    1568:	7a 83       	std	Y+2, r23	; 0x02
    156a:	8b 83       	std	Y+3, r24	; 0x03
    156c:	9c 83       	std	Y+4, r25	; 0x04
    156e:	05 e0       	ldi	r16, 0x05	; 5
    1570:	0e 94 42 13 	call	0x2684	; 0x2684 <__ashldi3>
    1574:	a3 2f       	mov	r26, r19
    1576:	b4 2f       	mov	r27, r20
    1578:	55 2e       	mov	r5, r21
    157a:	36 2e       	mov	r3, r22
    157c:	7d 83       	std	Y+5, r23	; 0x05
    157e:	8e 83       	std	Y+6, r24	; 0x06
    1580:	9f 83       	std	Y+7, r25	; 0x07
    1582:	72 2e       	mov	r7, r18
    1584:	71 1a       	sub	r7, r17
    1586:	f1 e0       	ldi	r31, 0x01	; 1
    1588:	27 15       	cp	r18, r7
    158a:	08 f0       	brcs	.+2      	; 0x158e <SERVO_voidSetServoAngle+0x7c>
    158c:	f0 e0       	ldi	r31, 0x00	; 0
    158e:	3a 2f       	mov	r19, r26
    1590:	36 19       	sub	r19, r6
    1592:	e1 e0       	ldi	r30, 0x01	; 1
    1594:	a3 17       	cp	r26, r19
    1596:	08 f0       	brcs	.+2      	; 0x159a <SERVO_voidSetServoAngle+0x88>
    1598:	e0 e0       	ldi	r30, 0x00	; 0
    159a:	93 2f       	mov	r25, r19
    159c:	9f 1b       	sub	r25, r31
    159e:	21 e0       	ldi	r18, 0x01	; 1
    15a0:	39 17       	cp	r19, r25
    15a2:	08 f0       	brcs	.+2      	; 0x15a6 <SERVO_voidSetServoAngle+0x94>
    15a4:	20 e0       	ldi	r18, 0x00	; 0
    15a6:	e2 2b       	or	r30, r18
    15a8:	4b 2f       	mov	r20, r27
    15aa:	44 19       	sub	r20, r4
    15ac:	31 e0       	ldi	r19, 0x01	; 1
    15ae:	b4 17       	cp	r27, r20
    15b0:	08 f0       	brcs	.+2      	; 0x15b4 <SERVO_voidSetServoAngle+0xa2>
    15b2:	30 e0       	ldi	r19, 0x00	; 0
    15b4:	04 2f       	mov	r16, r20
    15b6:	0e 1b       	sub	r16, r30
    15b8:	21 e0       	ldi	r18, 0x01	; 1
    15ba:	40 17       	cp	r20, r16
    15bc:	08 f0       	brcs	.+2      	; 0x15c0 <SERVO_voidSetServoAngle+0xae>
    15be:	20 e0       	ldi	r18, 0x00	; 0
    15c0:	32 2b       	or	r19, r18
    15c2:	55 2d       	mov	r21, r5
    15c4:	52 19       	sub	r21, r2
    15c6:	41 e0       	ldi	r20, 0x01	; 1
    15c8:	55 16       	cp	r5, r21
    15ca:	08 f0       	brcs	.+2      	; 0x15ce <SERVO_voidSetServoAngle+0xbc>
    15cc:	40 e0       	ldi	r20, 0x00	; 0
    15ce:	15 2f       	mov	r17, r21
    15d0:	13 1b       	sub	r17, r19
    15d2:	21 e0       	ldi	r18, 0x01	; 1
    15d4:	51 17       	cp	r21, r17
    15d6:	08 f0       	brcs	.+2      	; 0x15da <SERVO_voidSetServoAngle+0xc8>
    15d8:	20 e0       	ldi	r18, 0x00	; 0
    15da:	42 2b       	or	r20, r18
    15dc:	63 2d       	mov	r22, r3
    15de:	29 81       	ldd	r18, Y+1	; 0x01
    15e0:	62 1b       	sub	r22, r18
    15e2:	31 e0       	ldi	r19, 0x01	; 1
    15e4:	36 16       	cp	r3, r22
    15e6:	08 f0       	brcs	.+2      	; 0x15ea <SERVO_voidSetServoAngle+0xd8>
    15e8:	30 e0       	ldi	r19, 0x00	; 0
    15ea:	b6 2f       	mov	r27, r22
    15ec:	b4 1b       	sub	r27, r20
    15ee:	21 e0       	ldi	r18, 0x01	; 1
    15f0:	6b 17       	cp	r22, r27
    15f2:	08 f0       	brcs	.+2      	; 0x15f6 <SERVO_voidSetServoAngle+0xe4>
    15f4:	20 e0       	ldi	r18, 0x00	; 0
    15f6:	32 2b       	or	r19, r18
    15f8:	7d 81       	ldd	r23, Y+5	; 0x05
    15fa:	8a 81       	ldd	r24, Y+2	; 0x02
    15fc:	78 1b       	sub	r23, r24
    15fe:	41 e0       	ldi	r20, 0x01	; 1
    1600:	ed 81       	ldd	r30, Y+5	; 0x05
    1602:	e7 17       	cp	r30, r23
    1604:	08 f0       	brcs	.+2      	; 0x1608 <SERVO_voidSetServoAngle+0xf6>
    1606:	40 e0       	ldi	r20, 0x00	; 0
    1608:	a7 2f       	mov	r26, r23
    160a:	a3 1b       	sub	r26, r19
    160c:	21 e0       	ldi	r18, 0x01	; 1
    160e:	7a 17       	cp	r23, r26
    1610:	08 f0       	brcs	.+2      	; 0x1614 <SERVO_voidSetServoAngle+0x102>
    1612:	20 e0       	ldi	r18, 0x00	; 0
    1614:	42 2b       	or	r20, r18
    1616:	8e 81       	ldd	r24, Y+6	; 0x06
    1618:	fb 81       	ldd	r31, Y+3	; 0x03
    161a:	8f 1b       	sub	r24, r31
    161c:	21 e0       	ldi	r18, 0x01	; 1
    161e:	3e 81       	ldd	r19, Y+6	; 0x06
    1620:	38 17       	cp	r19, r24
    1622:	08 f0       	brcs	.+2      	; 0x1626 <SERVO_voidSetServoAngle+0x114>
    1624:	20 e0       	ldi	r18, 0x00	; 0
    1626:	68 2e       	mov	r6, r24
    1628:	64 1a       	sub	r6, r20
    162a:	31 e0       	ldi	r19, 0x01	; 1
    162c:	86 15       	cp	r24, r6
    162e:	08 f0       	brcs	.+2      	; 0x1632 <SERVO_voidSetServoAngle+0x120>
    1630:	30 e0       	ldi	r19, 0x00	; 0
    1632:	23 2b       	or	r18, r19
    1634:	5f 80       	ldd	r5, Y+7	; 0x07
    1636:	8c 81       	ldd	r24, Y+4	; 0x04
    1638:	58 1a       	sub	r5, r24
    163a:	52 1a       	sub	r5, r18
    163c:	27 2d       	mov	r18, r7
    163e:	28 0d       	add	r18, r8
    1640:	31 e0       	ldi	r19, 0x01	; 1
    1642:	27 15       	cp	r18, r7
    1644:	08 f0       	brcs	.+2      	; 0x1648 <SERVO_voidSetServoAngle+0x136>
    1646:	30 e0       	ldi	r19, 0x00	; 0
    1648:	39 0f       	add	r19, r25
    164a:	41 e0       	ldi	r20, 0x01	; 1
    164c:	39 17       	cp	r19, r25
    164e:	08 f0       	brcs	.+2      	; 0x1652 <SERVO_voidSetServoAngle+0x140>
    1650:	40 e0       	ldi	r20, 0x00	; 0
    1652:	40 0f       	add	r20, r16
    1654:	51 e0       	ldi	r21, 0x01	; 1
    1656:	40 17       	cp	r20, r16
    1658:	08 f0       	brcs	.+2      	; 0x165c <SERVO_voidSetServoAngle+0x14a>
    165a:	50 e0       	ldi	r21, 0x00	; 0
    165c:	51 0f       	add	r21, r17
    165e:	61 e0       	ldi	r22, 0x01	; 1
    1660:	51 17       	cp	r21, r17
    1662:	08 f0       	brcs	.+2      	; 0x1666 <SERVO_voidSetServoAngle+0x154>
    1664:	60 e0       	ldi	r22, 0x00	; 0
    1666:	6b 0f       	add	r22, r27
    1668:	71 e0       	ldi	r23, 0x01	; 1
    166a:	6b 17       	cp	r22, r27
    166c:	08 f0       	brcs	.+2      	; 0x1670 <SERVO_voidSetServoAngle+0x15e>
    166e:	70 e0       	ldi	r23, 0x00	; 0
    1670:	7a 0f       	add	r23, r26
    1672:	81 e0       	ldi	r24, 0x01	; 1
    1674:	7a 17       	cp	r23, r26
    1676:	08 f0       	brcs	.+2      	; 0x167a <SERVO_voidSetServoAngle+0x168>
    1678:	80 e0       	ldi	r24, 0x00	; 0
    167a:	86 0d       	add	r24, r6
    167c:	91 e0       	ldi	r25, 0x01	; 1
    167e:	86 15       	cp	r24, r6
    1680:	08 f0       	brcs	.+2      	; 0x1684 <SERVO_voidSetServoAngle+0x172>
    1682:	90 e0       	ldi	r25, 0x00	; 0
    1684:	95 0d       	add	r25, r5
    1686:	03 e0       	ldi	r16, 0x03	; 3
    1688:	0e 94 42 13 	call	0x2684	; 0x2684 <__ashldi3>
    168c:	e4 eb       	ldi	r30, 0xB4	; 180
    168e:	ae 2e       	mov	r10, r30
    1690:	bb 24       	eor	r11, r11
    1692:	cc 24       	eor	r12, r12
    1694:	dd 24       	eor	r13, r13
    1696:	ee 24       	eor	r14, r14
    1698:	ff 24       	eor	r15, r15
    169a:	00 e0       	ldi	r16, 0x00	; 0
    169c:	10 e0       	ldi	r17, 0x00	; 0
    169e:	0e 94 c1 13 	call	0x2782	; 0x2782 <__udivdi3>
    16a2:	59 01       	movw	r10, r18
    16a4:	e7 ee       	ldi	r30, 0xE7	; 231
    16a6:	f3 e0       	ldi	r31, 0x03	; 3
    16a8:	ae 0e       	add	r10, r30
    16aa:	bf 1e       	adc	r11, r31
    16ac:	c5 01       	movw	r24, r10
    16ae:	0e 94 b1 09 	call	0x1362	; 0x1362 <TIMER1_voidSetOCR1AValue>
    16b2:	27 96       	adiw	r28, 0x07	; 7
    16b4:	0f b6       	in	r0, 0x3f	; 63
    16b6:	f8 94       	cli
    16b8:	de bf       	out	0x3e, r29	; 62
    16ba:	0f be       	out	0x3f, r0	; 63
    16bc:	cd bf       	out	0x3d, r28	; 61
    16be:	cf 91       	pop	r28
    16c0:	df 91       	pop	r29
    16c2:	1f 91       	pop	r17
    16c4:	0f 91       	pop	r16
    16c6:	ff 90       	pop	r15
    16c8:	ef 90       	pop	r14
    16ca:	df 90       	pop	r13
    16cc:	cf 90       	pop	r12
    16ce:	bf 90       	pop	r11
    16d0:	af 90       	pop	r10
    16d2:	9f 90       	pop	r9
    16d4:	8f 90       	pop	r8
    16d6:	7f 90       	pop	r7
    16d8:	6f 90       	pop	r6
    16da:	5f 90       	pop	r5
    16dc:	4f 90       	pop	r4
    16de:	3f 90       	pop	r3
    16e0:	2f 90       	pop	r2
    16e2:	08 95       	ret

000016e4 <SERVO_voidInit>:
    16e4:	8f e1       	ldi	r24, 0x1F	; 31
    16e6:	9e e4       	ldi	r25, 0x4E	; 78
    16e8:	0e 94 ae 09 	call	0x135c	; 0x135c <TIMER1_voidSetICR1Value>
    16ec:	8d e0       	ldi	r24, 0x0D	; 13
    16ee:	90 e0       	ldi	r25, 0x00	; 0
    16f0:	62 e0       	ldi	r22, 0x02	; 2
    16f2:	70 e0       	ldi	r23, 0x00	; 0
    16f4:	42 e0       	ldi	r20, 0x02	; 2
    16f6:	50 e0       	ldi	r21, 0x00	; 0
    16f8:	22 e0       	ldi	r18, 0x02	; 2
    16fa:	30 e0       	ldi	r19, 0x00	; 0
    16fc:	0e 94 bb 08 	call	0x1176	; 0x1176 <TIMER1_voidInit>
    1700:	08 95       	ret

00001702 <TIMER2_voidInit>:
    1702:	81 30       	cpi	r24, 0x01	; 1
    1704:	91 05       	cpc	r25, r1
    1706:	61 f0       	breq	.+24     	; 0x1720 <TIMER2_voidInit+0x1e>
    1708:	81 30       	cpi	r24, 0x01	; 1
    170a:	91 05       	cpc	r25, r1
    170c:	30 f0       	brcs	.+12     	; 0x171a <TIMER2_voidInit+0x18>
    170e:	82 30       	cpi	r24, 0x02	; 2
    1710:	91 05       	cpc	r25, r1
    1712:	61 f0       	breq	.+24     	; 0x172c <TIMER2_voidInit+0x2a>
    1714:	03 97       	sbiw	r24, 0x03	; 3
    1716:	99 f4       	brne	.+38     	; 0x173e <TIMER2_voidInit+0x3c>
    1718:	0c c0       	rjmp	.+24     	; 0x1732 <TIMER2_voidInit+0x30>
    171a:	85 b5       	in	r24, 0x25	; 37
    171c:	8f 7b       	andi	r24, 0xBF	; 191
    171e:	02 c0       	rjmp	.+4      	; 0x1724 <TIMER2_voidInit+0x22>
    1720:	85 b5       	in	r24, 0x25	; 37
    1722:	80 64       	ori	r24, 0x40	; 64
    1724:	85 bd       	out	0x25, r24	; 37
    1726:	85 b5       	in	r24, 0x25	; 37
    1728:	87 7f       	andi	r24, 0xF7	; 247
    172a:	08 c0       	rjmp	.+16     	; 0x173c <TIMER2_voidInit+0x3a>
    172c:	85 b5       	in	r24, 0x25	; 37
    172e:	8f 7b       	andi	r24, 0xBF	; 191
    1730:	02 c0       	rjmp	.+4      	; 0x1736 <TIMER2_voidInit+0x34>
    1732:	85 b5       	in	r24, 0x25	; 37
    1734:	80 64       	ori	r24, 0x40	; 64
    1736:	85 bd       	out	0x25, r24	; 37
    1738:	85 b5       	in	r24, 0x25	; 37
    173a:	88 60       	ori	r24, 0x08	; 8
    173c:	85 bd       	out	0x25, r24	; 37
    173e:	85 b5       	in	r24, 0x25	; 37
    1740:	88 7c       	andi	r24, 0xC8	; 200
    1742:	85 bd       	out	0x25, r24	; 37
    1744:	85 b5       	in	r24, 0x25	; 37
    1746:	62 95       	swap	r22
    1748:	60 7f       	andi	r22, 0xF0	; 240
    174a:	64 2b       	or	r22, r20
    174c:	86 2b       	or	r24, r22
    174e:	85 bd       	out	0x25, r24	; 37
    1750:	08 95       	ret

00001752 <TIMER2_voidSetTCNT2>:
    1752:	84 bd       	out	0x24, r24	; 36
    1754:	08 95       	ret

00001756 <TIMER2_voidSetOCR2>:
    1756:	83 bd       	out	0x23, r24	; 35
    1758:	08 95       	ret

0000175a <TIMER2_voidOverFlowInterruptEnable>:
    175a:	89 b7       	in	r24, 0x39	; 57
    175c:	80 64       	ori	r24, 0x40	; 64
    175e:	89 bf       	out	0x39, r24	; 57
    1760:	08 95       	ret

00001762 <TIMER2_voidOverFlowInterruptDisable>:
    1762:	89 b7       	in	r24, 0x39	; 57
    1764:	8f 7b       	andi	r24, 0xBF	; 191
    1766:	89 bf       	out	0x39, r24	; 57
    1768:	08 95       	ret

0000176a <TIMER2_voidCompareInterruptEnable>:
    176a:	89 b7       	in	r24, 0x39	; 57
    176c:	80 68       	ori	r24, 0x80	; 128
    176e:	89 bf       	out	0x39, r24	; 57
    1770:	08 95       	ret

00001772 <TIMER2_voidCompareInterruptDisable>:
    1772:	89 b7       	in	r24, 0x39	; 57
    1774:	8f 77       	andi	r24, 0x7F	; 127
    1776:	89 bf       	out	0x39, r24	; 57
    1778:	08 95       	ret

0000177a <TIMER2_voidSetCallBackOVF>:
    177a:	90 93 ba 01 	sts	0x01BA, r25
    177e:	80 93 b9 01 	sts	0x01B9, r24
    1782:	08 95       	ret

00001784 <TIMER2_voidSetCallBackCTC>:
    1784:	90 93 b8 01 	sts	0x01B8, r25
    1788:	80 93 b7 01 	sts	0x01B7, r24
    178c:	08 95       	ret

0000178e <__vector_5>:
    178e:	1f 92       	push	r1
    1790:	0f 92       	push	r0
    1792:	0f b6       	in	r0, 0x3f	; 63
    1794:	0f 92       	push	r0
    1796:	11 24       	eor	r1, r1
    1798:	2f 93       	push	r18
    179a:	3f 93       	push	r19
    179c:	4f 93       	push	r20
    179e:	5f 93       	push	r21
    17a0:	6f 93       	push	r22
    17a2:	7f 93       	push	r23
    17a4:	8f 93       	push	r24
    17a6:	9f 93       	push	r25
    17a8:	af 93       	push	r26
    17aa:	bf 93       	push	r27
    17ac:	ef 93       	push	r30
    17ae:	ff 93       	push	r31
    17b0:	e0 91 b9 01 	lds	r30, 0x01B9
    17b4:	f0 91 ba 01 	lds	r31, 0x01BA
    17b8:	30 97       	sbiw	r30, 0x00	; 0
    17ba:	09 f0       	breq	.+2      	; 0x17be <__vector_5+0x30>
    17bc:	09 95       	icall
    17be:	ff 91       	pop	r31
    17c0:	ef 91       	pop	r30
    17c2:	bf 91       	pop	r27
    17c4:	af 91       	pop	r26
    17c6:	9f 91       	pop	r25
    17c8:	8f 91       	pop	r24
    17ca:	7f 91       	pop	r23
    17cc:	6f 91       	pop	r22
    17ce:	5f 91       	pop	r21
    17d0:	4f 91       	pop	r20
    17d2:	3f 91       	pop	r19
    17d4:	2f 91       	pop	r18
    17d6:	0f 90       	pop	r0
    17d8:	0f be       	out	0x3f, r0	; 63
    17da:	0f 90       	pop	r0
    17dc:	1f 90       	pop	r1
    17de:	18 95       	reti

000017e0 <__vector_4>:
    17e0:	1f 92       	push	r1
    17e2:	0f 92       	push	r0
    17e4:	0f b6       	in	r0, 0x3f	; 63
    17e6:	0f 92       	push	r0
    17e8:	11 24       	eor	r1, r1
    17ea:	2f 93       	push	r18
    17ec:	3f 93       	push	r19
    17ee:	4f 93       	push	r20
    17f0:	5f 93       	push	r21
    17f2:	6f 93       	push	r22
    17f4:	7f 93       	push	r23
    17f6:	8f 93       	push	r24
    17f8:	9f 93       	push	r25
    17fa:	af 93       	push	r26
    17fc:	bf 93       	push	r27
    17fe:	ef 93       	push	r30
    1800:	ff 93       	push	r31
    1802:	e0 91 b7 01 	lds	r30, 0x01B7
    1806:	f0 91 b8 01 	lds	r31, 0x01B8
    180a:	30 97       	sbiw	r30, 0x00	; 0
    180c:	09 f0       	breq	.+2      	; 0x1810 <__vector_4+0x30>
    180e:	09 95       	icall
    1810:	ff 91       	pop	r31
    1812:	ef 91       	pop	r30
    1814:	bf 91       	pop	r27
    1816:	af 91       	pop	r26
    1818:	9f 91       	pop	r25
    181a:	8f 91       	pop	r24
    181c:	7f 91       	pop	r23
    181e:	6f 91       	pop	r22
    1820:	5f 91       	pop	r21
    1822:	4f 91       	pop	r20
    1824:	3f 91       	pop	r19
    1826:	2f 91       	pop	r18
    1828:	0f 90       	pop	r0
    182a:	0f be       	out	0x3f, r0	; 63
    182c:	0f 90       	pop	r0
    182e:	1f 90       	pop	r1
    1830:	18 95       	reti

00001832 <WDT_voidEnableWDT>:
    1832:	81 b5       	in	r24, 0x21	; 33
    1834:	88 7f       	andi	r24, 0xF8	; 248
    1836:	81 bd       	out	0x21, r24	; 33
    1838:	81 b5       	in	r24, 0x21	; 33
    183a:	87 60       	ori	r24, 0x07	; 7
    183c:	81 bd       	out	0x21, r24	; 33
    183e:	81 b5       	in	r24, 0x21	; 33
    1840:	88 60       	ori	r24, 0x08	; 8
    1842:	81 bd       	out	0x21, r24	; 33
    1844:	81 b5       	in	r24, 0x21	; 33
    1846:	8f 7e       	andi	r24, 0xEF	; 239
    1848:	81 bd       	out	0x21, r24	; 33
    184a:	08 95       	ret

0000184c <WDT_voidDisableWDT>:
    184c:	81 b5       	in	r24, 0x21	; 33
    184e:	87 7f       	andi	r24, 0xF7	; 247
    1850:	81 bd       	out	0x21, r24	; 33
    1852:	81 b5       	in	r24, 0x21	; 33
    1854:	80 61       	ori	r24, 0x10	; 16
    1856:	81 bd       	out	0x21, r24	; 33
    1858:	08 95       	ret

0000185a <TIMER1_setInterruptTime_us>:
    185a:	0f 93       	push	r16
    185c:	1f 93       	push	r17
    185e:	8b 01       	movw	r16, r22
    1860:	01 97       	sbiw	r24, 0x01	; 1
    1862:	0e 94 b1 09 	call	0x1362	; 0x1362 <TIMER1_voidSetOCR1AValue>
    1866:	c8 01       	movw	r24, r16
    1868:	0e 94 bf 09 	call	0x137e	; 0x137e <TIMER1_voidSetCallBackCOMA>
    186c:	0e 94 96 09 	call	0x132c	; 0x132c <TIMER1_voidCompareAInterruptEnable>
    1870:	84 e0       	ldi	r24, 0x04	; 4
    1872:	90 e0       	ldi	r25, 0x00	; 0
    1874:	62 e0       	ldi	r22, 0x02	; 2
    1876:	70 e0       	ldi	r23, 0x00	; 0
    1878:	40 e0       	ldi	r20, 0x00	; 0
    187a:	50 e0       	ldi	r21, 0x00	; 0
    187c:	20 e0       	ldi	r18, 0x00	; 0
    187e:	30 e0       	ldi	r19, 0x00	; 0
    1880:	0e 94 bb 08 	call	0x1176	; 0x1176 <TIMER1_voidInit>
    1884:	1f 91       	pop	r17
    1886:	0f 91       	pop	r16
    1888:	08 95       	ret

0000188a <TIMER1_setInterruptTime_ms>:
    188a:	0f 93       	push	r16
    188c:	1f 93       	push	r17
    188e:	8b 01       	movw	r16, r22
    1890:	28 ee       	ldi	r18, 0xE8	; 232
    1892:	33 e0       	ldi	r19, 0x03	; 3
    1894:	ac 01       	movw	r20, r24
    1896:	42 9f       	mul	r20, r18
    1898:	c0 01       	movw	r24, r0
    189a:	43 9f       	mul	r20, r19
    189c:	90 0d       	add	r25, r0
    189e:	52 9f       	mul	r21, r18
    18a0:	90 0d       	add	r25, r0
    18a2:	11 24       	eor	r1, r1
    18a4:	01 97       	sbiw	r24, 0x01	; 1
    18a6:	0e 94 b1 09 	call	0x1362	; 0x1362 <TIMER1_voidSetOCR1AValue>
    18aa:	c8 01       	movw	r24, r16
    18ac:	0e 94 bf 09 	call	0x137e	; 0x137e <TIMER1_voidSetCallBackCOMA>
    18b0:	0e 94 96 09 	call	0x132c	; 0x132c <TIMER1_voidCompareAInterruptEnable>
    18b4:	84 e0       	ldi	r24, 0x04	; 4
    18b6:	90 e0       	ldi	r25, 0x00	; 0
    18b8:	62 e0       	ldi	r22, 0x02	; 2
    18ba:	70 e0       	ldi	r23, 0x00	; 0
    18bc:	40 e0       	ldi	r20, 0x00	; 0
    18be:	50 e0       	ldi	r21, 0x00	; 0
    18c0:	20 e0       	ldi	r18, 0x00	; 0
    18c2:	30 e0       	ldi	r19, 0x00	; 0
    18c4:	0e 94 bb 08 	call	0x1176	; 0x1176 <TIMER1_voidInit>
    18c8:	1f 91       	pop	r17
    18ca:	0f 91       	pop	r16
    18cc:	08 95       	ret

000018ce <PWM_voidInit>:
    18ce:	8d e0       	ldi	r24, 0x0D	; 13
    18d0:	90 e0       	ldi	r25, 0x00	; 0
    18d2:	62 e0       	ldi	r22, 0x02	; 2
    18d4:	70 e0       	ldi	r23, 0x00	; 0
    18d6:	42 e0       	ldi	r20, 0x02	; 2
    18d8:	50 e0       	ldi	r21, 0x00	; 0
    18da:	22 e0       	ldi	r18, 0x02	; 2
    18dc:	30 e0       	ldi	r19, 0x00	; 0
    18de:	0e 94 bb 08 	call	0x1176	; 0x1176 <TIMER1_voidInit>
    18e2:	08 95       	ret

000018e4 <PWM_Measure>:
    18e4:	af 92       	push	r10
    18e6:	bf 92       	push	r11
    18e8:	cf 92       	push	r12
    18ea:	df 92       	push	r13
    18ec:	ef 92       	push	r14
    18ee:	ff 92       	push	r15
    18f0:	0f 93       	push	r16
    18f2:	1f 93       	push	r17
    18f4:	cf 93       	push	r28
    18f6:	df 93       	push	r29
    18f8:	5c 01       	movw	r10, r24
    18fa:	eb 01       	movw	r28, r22
    18fc:	80 e0       	ldi	r24, 0x00	; 0
    18fe:	90 e0       	ldi	r25, 0x00	; 0
    1900:	0e 94 b7 09 	call	0x136e	; 0x136e <TIMER1_voidSetTCNT1Value>
    1904:	8b e0       	ldi	r24, 0x0B	; 11
    1906:	9d e0       	ldi	r25, 0x0D	; 13
    1908:	0e 94 ba 09 	call	0x1374	; 0x1374 <TIMER1_voidSetCallBackCapture>
    190c:	80 e0       	ldi	r24, 0x00	; 0
    190e:	90 e0       	ldi	r25, 0x00	; 0
    1910:	0e 94 7e 09 	call	0x12fc	; 0x12fc <TIMER1_voidInputCaptureEdge>
    1914:	0e 94 8e 09 	call	0x131c	; 0x131c <TIMER1_voidCaptureInterruptEnable>
    1918:	10 92 bb 01 	sts	0x01BB, r1
    191c:	80 91 bb 01 	lds	r24, 0x01BB
    1920:	83 30       	cpi	r24, 0x03	; 3
    1922:	e0 f3       	brcs	.-8      	; 0x191c <PWM_Measure+0x38>
    1924:	40 91 c0 01 	lds	r20, 0x01C0
    1928:	50 91 c1 01 	lds	r21, 0x01C1
    192c:	60 91 c2 01 	lds	r22, 0x01C2
    1930:	70 91 c3 01 	lds	r23, 0x01C3
    1934:	80 91 bc 01 	lds	r24, 0x01BC
    1938:	90 91 bd 01 	lds	r25, 0x01BD
    193c:	a0 91 be 01 	lds	r26, 0x01BE
    1940:	b0 91 bf 01 	lds	r27, 0x01BF
    1944:	48 1b       	sub	r20, r24
    1946:	59 0b       	sbc	r21, r25
    1948:	c0 90 c4 01 	lds	r12, 0x01C4
    194c:	d0 90 c5 01 	lds	r13, 0x01C5
    1950:	e0 90 c6 01 	lds	r14, 0x01C6
    1954:	f0 90 c7 01 	lds	r15, 0x01C7
    1958:	80 91 c0 01 	lds	r24, 0x01C0
    195c:	90 91 c1 01 	lds	r25, 0x01C1
    1960:	a0 91 c2 01 	lds	r26, 0x01C2
    1964:	b0 91 c3 01 	lds	r27, 0x01C3
    1968:	8a 01       	movw	r16, r20
    196a:	08 1b       	sub	r16, r24
    196c:	19 0b       	sbc	r17, r25
    196e:	0c 0d       	add	r16, r12
    1970:	1d 1d       	adc	r17, r13
    1972:	84 e6       	ldi	r24, 0x64	; 100
    1974:	90 e0       	ldi	r25, 0x00	; 0
    1976:	9c 01       	movw	r18, r24
    1978:	42 9f       	mul	r20, r18
    197a:	c0 01       	movw	r24, r0
    197c:	43 9f       	mul	r20, r19
    197e:	90 0d       	add	r25, r0
    1980:	52 9f       	mul	r21, r18
    1982:	90 0d       	add	r25, r0
    1984:	11 24       	eor	r1, r1
    1986:	b8 01       	movw	r22, r16
    1988:	0e 94 61 1a 	call	0x34c2	; 0x34c2 <__udivmodhi4>
    198c:	68 83       	st	Y, r22
    198e:	20 e0       	ldi	r18, 0x00	; 0
    1990:	30 e0       	ldi	r19, 0x00	; 0
    1992:	60 e4       	ldi	r22, 0x40	; 64
    1994:	72 e4       	ldi	r23, 0x42	; 66
    1996:	8f e0       	ldi	r24, 0x0F	; 15
    1998:	90 e0       	ldi	r25, 0x00	; 0
    199a:	a9 01       	movw	r20, r18
    199c:	98 01       	movw	r18, r16
    199e:	0e 94 75 1a 	call	0x34ea	; 0x34ea <__udivmodsi4>
    19a2:	f5 01       	movw	r30, r10
    19a4:	20 83       	st	Z, r18
    19a6:	31 83       	std	Z+1, r19	; 0x01
    19a8:	42 83       	std	Z+2, r20	; 0x02
    19aa:	53 83       	std	Z+3, r21	; 0x03
    19ac:	df 91       	pop	r29
    19ae:	cf 91       	pop	r28
    19b0:	1f 91       	pop	r17
    19b2:	0f 91       	pop	r16
    19b4:	ff 90       	pop	r15
    19b6:	ef 90       	pop	r14
    19b8:	df 90       	pop	r13
    19ba:	cf 90       	pop	r12
    19bc:	bf 90       	pop	r11
    19be:	af 90       	pop	r10
    19c0:	08 95       	ret

000019c2 <PWM_voidDutyCycle>:
    19c2:	ef 92       	push	r14
    19c4:	ff 92       	push	r15
    19c6:	0f 93       	push	r16
    19c8:	1f 93       	push	r17
    19ca:	7c 01       	movw	r14, r24
    19cc:	85 e6       	ldi	r24, 0x65	; 101
    19ce:	e8 16       	cp	r14, r24
    19d0:	f1 04       	cpc	r15, r1
    19d2:	e0 f4       	brcc	.+56     	; 0x1a0c <PWM_voidDutyCycle+0x4a>
    19d4:	0e 94 8a 09 	call	0x1314	; 0x1314 <TIMER1_voidGetICR1>
    19d8:	00 e0       	ldi	r16, 0x00	; 0
    19da:	10 e0       	ldi	r17, 0x00	; 0
    19dc:	9c 01       	movw	r18, r24
    19de:	2f 5f       	subi	r18, 0xFF	; 255
    19e0:	3f 4f       	sbci	r19, 0xFF	; 255
    19e2:	40 e0       	ldi	r20, 0x00	; 0
    19e4:	50 e0       	ldi	r21, 0x00	; 0
    19e6:	c8 01       	movw	r24, r16
    19e8:	b7 01       	movw	r22, r14
    19ea:	0e 94 36 1a 	call	0x346c	; 0x346c <__mulsi3>
    19ee:	24 e6       	ldi	r18, 0x64	; 100
    19f0:	30 e0       	ldi	r19, 0x00	; 0
    19f2:	40 e0       	ldi	r20, 0x00	; 0
    19f4:	50 e0       	ldi	r21, 0x00	; 0
    19f6:	0e 94 75 1a 	call	0x34ea	; 0x34ea <__udivmodsi4>
    19fa:	c9 01       	movw	r24, r18
    19fc:	23 2b       	or	r18, r19
    19fe:	11 f0       	breq	.+4      	; 0x1a04 <PWM_voidDutyCycle+0x42>
    1a00:	01 97       	sbiw	r24, 0x01	; 1
    1a02:	02 c0       	rjmp	.+4      	; 0x1a08 <PWM_voidDutyCycle+0x46>
    1a04:	80 e0       	ldi	r24, 0x00	; 0
    1a06:	90 e0       	ldi	r25, 0x00	; 0
    1a08:	0e 94 b1 09 	call	0x1362	; 0x1362 <TIMER1_voidSetOCR1AValue>
    1a0c:	1f 91       	pop	r17
    1a0e:	0f 91       	pop	r16
    1a10:	ff 90       	pop	r15
    1a12:	ef 90       	pop	r14
    1a14:	08 95       	ret

00001a16 <func_ICU>:
    1a16:	80 91 bb 01 	lds	r24, 0x01BB
    1a1a:	88 23       	and	r24, r24
    1a1c:	91 f4       	brne	.+36     	; 0x1a42 <func_ICU+0x2c>
    1a1e:	0e 94 8a 09 	call	0x1314	; 0x1314 <TIMER1_voidGetICR1>
    1a22:	a0 e0       	ldi	r26, 0x00	; 0
    1a24:	b0 e0       	ldi	r27, 0x00	; 0
    1a26:	80 93 bc 01 	sts	0x01BC, r24
    1a2a:	90 93 bd 01 	sts	0x01BD, r25
    1a2e:	a0 93 be 01 	sts	0x01BE, r26
    1a32:	b0 93 bf 01 	sts	0x01BF, r27
    1a36:	81 e0       	ldi	r24, 0x01	; 1
    1a38:	90 e0       	ldi	r25, 0x00	; 0
    1a3a:	0e 94 7e 09 	call	0x12fc	; 0x12fc <TIMER1_voidInputCaptureEdge>
    1a3e:	81 e0       	ldi	r24, 0x01	; 1
    1a40:	15 c0       	rjmp	.+42     	; 0x1a6c <func_ICU+0x56>
    1a42:	80 91 bb 01 	lds	r24, 0x01BB
    1a46:	81 30       	cpi	r24, 0x01	; 1
    1a48:	a1 f4       	brne	.+40     	; 0x1a72 <func_ICU+0x5c>
    1a4a:	0e 94 8a 09 	call	0x1314	; 0x1314 <TIMER1_voidGetICR1>
    1a4e:	a0 e0       	ldi	r26, 0x00	; 0
    1a50:	b0 e0       	ldi	r27, 0x00	; 0
    1a52:	80 93 c0 01 	sts	0x01C0, r24
    1a56:	90 93 c1 01 	sts	0x01C1, r25
    1a5a:	a0 93 c2 01 	sts	0x01C2, r26
    1a5e:	b0 93 c3 01 	sts	0x01C3, r27
    1a62:	80 e0       	ldi	r24, 0x00	; 0
    1a64:	90 e0       	ldi	r25, 0x00	; 0
    1a66:	0e 94 7e 09 	call	0x12fc	; 0x12fc <TIMER1_voidInputCaptureEdge>
    1a6a:	82 e0       	ldi	r24, 0x02	; 2
    1a6c:	80 93 bb 01 	sts	0x01BB, r24
    1a70:	08 95       	ret
    1a72:	80 91 bb 01 	lds	r24, 0x01BB
    1a76:	82 30       	cpi	r24, 0x02	; 2
    1a78:	89 f4       	brne	.+34     	; 0x1a9c <func_ICU+0x86>
    1a7a:	0e 94 8a 09 	call	0x1314	; 0x1314 <TIMER1_voidGetICR1>
    1a7e:	a0 e0       	ldi	r26, 0x00	; 0
    1a80:	b0 e0       	ldi	r27, 0x00	; 0
    1a82:	80 93 c4 01 	sts	0x01C4, r24
    1a86:	90 93 c5 01 	sts	0x01C5, r25
    1a8a:	a0 93 c6 01 	sts	0x01C6, r26
    1a8e:	b0 93 c7 01 	sts	0x01C7, r27
    1a92:	0e 94 92 09 	call	0x1324	; 0x1324 <TIMER1_voidCaptureInterruptDisable>
    1a96:	83 e0       	ldi	r24, 0x03	; 3
    1a98:	80 93 bb 01 	sts	0x01BB, r24
    1a9c:	08 95       	ret

00001a9e <PWM_Freq_Hz>:
    1a9e:	00 97       	sbiw	r24, 0x00	; 0
    1aa0:	a1 f0       	breq	.+40     	; 0x1aca <PWM_Freq_Hz+0x2c>
    1aa2:	9c 01       	movw	r18, r24
    1aa4:	40 e0       	ldi	r20, 0x00	; 0
    1aa6:	50 e0       	ldi	r21, 0x00	; 0
    1aa8:	60 e4       	ldi	r22, 0x40	; 64
    1aaa:	72 e4       	ldi	r23, 0x42	; 66
    1aac:	8f e0       	ldi	r24, 0x0F	; 15
    1aae:	90 e0       	ldi	r25, 0x00	; 0
    1ab0:	0e 94 97 1a 	call	0x352e	; 0x352e <__divmodsi4>
    1ab4:	c9 01       	movw	r24, r18
    1ab6:	23 2b       	or	r18, r19
    1ab8:	21 f0       	breq	.+8      	; 0x1ac2 <PWM_Freq_Hz+0x24>
    1aba:	01 97       	sbiw	r24, 0x01	; 1
    1abc:	0e 94 ae 09 	call	0x135c	; 0x135c <TIMER1_voidSetICR1Value>
    1ac0:	08 95       	ret
    1ac2:	80 e0       	ldi	r24, 0x00	; 0
    1ac4:	90 e0       	ldi	r25, 0x00	; 0
    1ac6:	0e 94 ae 09 	call	0x135c	; 0x135c <TIMER1_voidSetICR1Value>
    1aca:	08 95       	ret

00001acc <PWM_Freq_KHz>:
    1acc:	bc 01       	movw	r22, r24
    1ace:	00 97       	sbiw	r24, 0x00	; 0
    1ad0:	81 f0       	breq	.+32     	; 0x1af2 <PWM_Freq_KHz+0x26>
    1ad2:	88 ee       	ldi	r24, 0xE8	; 232
    1ad4:	93 e0       	ldi	r25, 0x03	; 3
    1ad6:	0e 94 61 1a 	call	0x34c2	; 0x34c2 <__udivmodhi4>
    1ada:	cb 01       	movw	r24, r22
    1adc:	61 15       	cp	r22, r1
    1ade:	71 05       	cpc	r23, r1
    1ae0:	21 f0       	breq	.+8      	; 0x1aea <PWM_Freq_KHz+0x1e>
    1ae2:	01 97       	sbiw	r24, 0x01	; 1
    1ae4:	0e 94 ae 09 	call	0x135c	; 0x135c <TIMER1_voidSetICR1Value>
    1ae8:	08 95       	ret
    1aea:	80 e0       	ldi	r24, 0x00	; 0
    1aec:	90 e0       	ldi	r25, 0x00	; 0
    1aee:	0e 94 ae 09 	call	0x135c	; 0x135c <TIMER1_voidSetICR1Value>
    1af2:	08 95       	ret

00001af4 <ULTRASONIC_u8AsynchReadDistance>:
    1af4:	fc 01       	movw	r30, r24
    1af6:	80 91 c8 01 	lds	r24, 0x01C8
    1afa:	82 30       	cpi	r24, 0x02	; 2
    1afc:	11 f0       	breq	.+4      	; 0x1b02 <ULTRASONIC_u8AsynchReadDistance+0xe>
    1afe:	80 e0       	ldi	r24, 0x00	; 0
    1b00:	08 95       	ret
    1b02:	80 91 c9 01 	lds	r24, 0x01C9
    1b06:	90 91 ca 01 	lds	r25, 0x01CA
    1b0a:	a0 91 cb 01 	lds	r26, 0x01CB
    1b0e:	b0 91 cc 01 	lds	r27, 0x01CC
    1b12:	20 91 cd 01 	lds	r18, 0x01CD
    1b16:	30 91 ce 01 	lds	r19, 0x01CE
    1b1a:	40 91 cf 01 	lds	r20, 0x01CF
    1b1e:	50 91 d0 01 	lds	r21, 0x01D0
    1b22:	40 91 d1 01 	lds	r20, 0x01D1
    1b26:	50 91 d2 01 	lds	r21, 0x01D2
    1b2a:	82 1b       	sub	r24, r18
    1b2c:	93 0b       	sbc	r25, r19
    1b2e:	6a e3       	ldi	r22, 0x3A	; 58
    1b30:	70 e0       	ldi	r23, 0x00	; 0
    1b32:	0e 94 61 1a 	call	0x34c2	; 0x34c2 <__udivmodhi4>
    1b36:	71 83       	std	Z+1, r23	; 0x01
    1b38:	60 83       	st	Z, r22
    1b3a:	10 92 c8 01 	sts	0x01C8, r1
    1b3e:	10 92 d2 01 	sts	0x01D2, r1
    1b42:	10 92 d1 01 	sts	0x01D1, r1
    1b46:	81 e0       	ldi	r24, 0x01	; 1
    1b48:	08 95       	ret

00001b4a <OVF_counter>:
    1b4a:	80 91 d1 01 	lds	r24, 0x01D1
    1b4e:	90 91 d2 01 	lds	r25, 0x01D2
    1b52:	01 96       	adiw	r24, 0x01	; 1
    1b54:	90 93 d2 01 	sts	0x01D2, r25
    1b58:	80 93 d1 01 	sts	0x01D1, r24
    1b5c:	08 95       	ret

00001b5e <ULTRASONIC_voidStart>:
    1b5e:	0f 93       	push	r16
    1b60:	1f 93       	push	r17
    1b62:	18 2f       	mov	r17, r24
    1b64:	06 2f       	mov	r16, r22
    1b66:	80 91 c8 01 	lds	r24, 0x01C8
    1b6a:	88 23       	and	r24, r24
    1b6c:	91 f4       	brne	.+36     	; 0x1b92 <ULTRASONIC_voidStart+0x34>
    1b6e:	81 2f       	mov	r24, r17
    1b70:	41 e0       	ldi	r20, 0x01	; 1
    1b72:	0e 94 41 01 	call	0x282	; 0x282 <DIO_WritePin>
    1b76:	8a e1       	ldi	r24, 0x1A	; 26
    1b78:	8a 95       	dec	r24
    1b7a:	f1 f7       	brne	.-4      	; 0x1b78 <ULTRASONIC_voidStart+0x1a>
    1b7c:	81 2f       	mov	r24, r17
    1b7e:	60 2f       	mov	r22, r16
    1b80:	40 e0       	ldi	r20, 0x00	; 0
    1b82:	0e 94 41 01 	call	0x282	; 0x282 <DIO_WritePin>
    1b86:	80 e0       	ldi	r24, 0x00	; 0
    1b88:	90 e0       	ldi	r25, 0x00	; 0
    1b8a:	0e 94 7e 09 	call	0x12fc	; 0x12fc <TIMER1_voidInputCaptureEdge>
    1b8e:	0e 94 8e 09 	call	0x131c	; 0x131c <TIMER1_voidCaptureInterruptEnable>
    1b92:	1f 91       	pop	r17
    1b94:	0f 91       	pop	r16
    1b96:	08 95       	ret

00001b98 <ULTRASONIC_u16SynchReadDistance>:
    1b98:	0f 93       	push	r16
    1b9a:	1f 93       	push	r17
    1b9c:	18 2f       	mov	r17, r24
    1b9e:	06 2f       	mov	r16, r22
    1ba0:	10 92 d2 01 	sts	0x01D2, r1
    1ba4:	10 92 d1 01 	sts	0x01D1, r1
    1ba8:	10 92 c8 01 	sts	0x01C8, r1
    1bac:	41 e0       	ldi	r20, 0x01	; 1
    1bae:	0e 94 41 01 	call	0x282	; 0x282 <DIO_WritePin>
    1bb2:	8a e1       	ldi	r24, 0x1A	; 26
    1bb4:	8a 95       	dec	r24
    1bb6:	f1 f7       	brne	.-4      	; 0x1bb4 <ULTRASONIC_u16SynchReadDistance+0x1c>
    1bb8:	81 2f       	mov	r24, r17
    1bba:	60 2f       	mov	r22, r16
    1bbc:	40 e0       	ldi	r20, 0x00	; 0
    1bbe:	0e 94 41 01 	call	0x282	; 0x282 <DIO_WritePin>
    1bc2:	80 e0       	ldi	r24, 0x00	; 0
    1bc4:	90 e0       	ldi	r25, 0x00	; 0
    1bc6:	0e 94 7e 09 	call	0x12fc	; 0x12fc <TIMER1_voidInputCaptureEdge>
    1bca:	0e 94 8e 09 	call	0x131c	; 0x131c <TIMER1_voidCaptureInterruptEnable>
    1bce:	80 91 c8 01 	lds	r24, 0x01C8
    1bd2:	82 30       	cpi	r24, 0x02	; 2
    1bd4:	e0 f3       	brcs	.-8      	; 0x1bce <ULTRASONIC_u16SynchReadDistance+0x36>
    1bd6:	80 91 c9 01 	lds	r24, 0x01C9
    1bda:	90 91 ca 01 	lds	r25, 0x01CA
    1bde:	a0 91 cb 01 	lds	r26, 0x01CB
    1be2:	b0 91 cc 01 	lds	r27, 0x01CC
    1be6:	20 91 cd 01 	lds	r18, 0x01CD
    1bea:	30 91 ce 01 	lds	r19, 0x01CE
    1bee:	40 91 cf 01 	lds	r20, 0x01CF
    1bf2:	50 91 d0 01 	lds	r21, 0x01D0
    1bf6:	40 91 d1 01 	lds	r20, 0x01D1
    1bfa:	50 91 d2 01 	lds	r21, 0x01D2
    1bfe:	82 1b       	sub	r24, r18
    1c00:	93 0b       	sbc	r25, r19
    1c02:	6a e3       	ldi	r22, 0x3A	; 58
    1c04:	70 e0       	ldi	r23, 0x00	; 0
    1c06:	0e 94 61 1a 	call	0x34c2	; 0x34c2 <__udivmodhi4>
    1c0a:	cb 01       	movw	r24, r22
    1c0c:	1f 91       	pop	r17
    1c0e:	0f 91       	pop	r16
    1c10:	08 95       	ret

00001c12 <ULTRASONIC_voidInit>:
    1c12:	41 e0       	ldi	r20, 0x01	; 1
    1c14:	20 e0       	ldi	r18, 0x00	; 0
    1c16:	0e 94 83 00 	call	0x106	; 0x106 <DIO_InitPin>
    1c1a:	83 e0       	ldi	r24, 0x03	; 3
    1c1c:	66 e0       	ldi	r22, 0x06	; 6
    1c1e:	40 e0       	ldi	r20, 0x00	; 0
    1c20:	20 e0       	ldi	r18, 0x00	; 0
    1c22:	0e 94 83 00 	call	0x106	; 0x106 <DIO_InitPin>
    1c26:	88 e2       	ldi	r24, 0x28	; 40
    1c28:	9e e0       	ldi	r25, 0x0E	; 14
    1c2a:	0e 94 ba 09 	call	0x1374	; 0x1374 <TIMER1_voidSetCallBackCapture>
    1c2e:	85 ea       	ldi	r24, 0xA5	; 165
    1c30:	9d e0       	ldi	r25, 0x0D	; 13
    1c32:	0e 94 c9 09 	call	0x1392	; 0x1392 <TIMER1_voidSetCallBackOVF>
    1c36:	0e 94 a6 09 	call	0x134c	; 0x134c <TIMER1_voidOverFlowInterruptEnable>
    1c3a:	80 e0       	ldi	r24, 0x00	; 0
    1c3c:	90 e0       	ldi	r25, 0x00	; 0
    1c3e:	62 e0       	ldi	r22, 0x02	; 2
    1c40:	70 e0       	ldi	r23, 0x00	; 0
    1c42:	40 e0       	ldi	r20, 0x00	; 0
    1c44:	50 e0       	ldi	r21, 0x00	; 0
    1c46:	20 e0       	ldi	r18, 0x00	; 0
    1c48:	30 e0       	ldi	r19, 0x00	; 0
    1c4a:	0e 94 bb 08 	call	0x1176	; 0x1176 <TIMER1_voidInit>
    1c4e:	08 95       	ret

00001c50 <ICU_func>:
    1c50:	80 91 c8 01 	lds	r24, 0x01C8
    1c54:	88 23       	and	r24, r24
    1c56:	c1 f4       	brne	.+48     	; 0x1c88 <ICU_func+0x38>
    1c58:	10 92 d2 01 	sts	0x01D2, r1
    1c5c:	10 92 d1 01 	sts	0x01D1, r1
    1c60:	0e 94 8a 09 	call	0x1314	; 0x1314 <TIMER1_voidGetICR1>
    1c64:	a0 e0       	ldi	r26, 0x00	; 0
    1c66:	b0 e0       	ldi	r27, 0x00	; 0
    1c68:	80 93 cd 01 	sts	0x01CD, r24
    1c6c:	90 93 ce 01 	sts	0x01CE, r25
    1c70:	a0 93 cf 01 	sts	0x01CF, r26
    1c74:	b0 93 d0 01 	sts	0x01D0, r27
    1c78:	81 e0       	ldi	r24, 0x01	; 1
    1c7a:	80 93 c8 01 	sts	0x01C8, r24
    1c7e:	81 e0       	ldi	r24, 0x01	; 1
    1c80:	90 e0       	ldi	r25, 0x00	; 0
    1c82:	0e 94 7e 09 	call	0x12fc	; 0x12fc <TIMER1_voidInputCaptureEdge>
    1c86:	08 95       	ret
    1c88:	80 91 c8 01 	lds	r24, 0x01C8
    1c8c:	81 30       	cpi	r24, 0x01	; 1
    1c8e:	89 f4       	brne	.+34     	; 0x1cb2 <ICU_func+0x62>
    1c90:	0e 94 8a 09 	call	0x1314	; 0x1314 <TIMER1_voidGetICR1>
    1c94:	a0 e0       	ldi	r26, 0x00	; 0
    1c96:	b0 e0       	ldi	r27, 0x00	; 0
    1c98:	80 93 c9 01 	sts	0x01C9, r24
    1c9c:	90 93 ca 01 	sts	0x01CA, r25
    1ca0:	a0 93 cb 01 	sts	0x01CB, r26
    1ca4:	b0 93 cc 01 	sts	0x01CC, r27
    1ca8:	82 e0       	ldi	r24, 0x02	; 2
    1caa:	80 93 c8 01 	sts	0x01C8, r24
    1cae:	0e 94 92 09 	call	0x1324	; 0x1324 <TIMER1_voidCaptureInterruptDisable>
    1cb2:	08 95       	ret

00001cb4 <UART_voidInit>:
    1cb4:	83 e3       	ldi	r24, 0x33	; 51
    1cb6:	89 b9       	out	0x09, r24	; 9
    1cb8:	10 bc       	out	0x20, r1	; 32
    1cba:	59 98       	cbi	0x0b, 1	; 11
    1cbc:	52 98       	cbi	0x0a, 2	; 10
    1cbe:	54 9a       	sbi	0x0a, 4	; 10
    1cc0:	53 9a       	sbi	0x0a, 3	; 10
    1cc2:	86 e8       	ldi	r24, 0x86	; 134
    1cc4:	80 bd       	out	0x20, r24	; 32
    1cc6:	08 95       	ret

00001cc8 <UART_voidSendByteSynch>:
    1cc8:	48 2f       	mov	r20, r24
    1cca:	8b b1       	in	r24, 0x0b	; 11
    1ccc:	2b b1       	in	r18, 0x0b	; 11
    1cce:	90 e0       	ldi	r25, 0x00	; 0
    1cd0:	8f 7d       	andi	r24, 0xDF	; 223
    1cd2:	30 e0       	ldi	r19, 0x00	; 0
    1cd4:	82 17       	cp	r24, r18
    1cd6:	93 07       	cpc	r25, r19
    1cd8:	c1 f3       	breq	.-16     	; 0x1cca <UART_voidSendByteSynch+0x2>
    1cda:	4c b9       	out	0x0c, r20	; 12
    1cdc:	08 95       	ret

00001cde <UART_u8ReadByteSynch>:
    1cde:	8b b1       	in	r24, 0x0b	; 11
    1ce0:	2b b1       	in	r18, 0x0b	; 11
    1ce2:	90 e0       	ldi	r25, 0x00	; 0
    1ce4:	8f 77       	andi	r24, 0x7F	; 127
    1ce6:	30 e0       	ldi	r19, 0x00	; 0
    1ce8:	82 17       	cp	r24, r18
    1cea:	93 07       	cpc	r25, r19
    1cec:	c1 f3       	breq	.-16     	; 0x1cde <UART_u8ReadByteSynch>
    1cee:	8c b1       	in	r24, 0x0c	; 12
    1cf0:	08 95       	ret

00001cf2 <UART_voidSendByteNoBlock>:
    1cf2:	8c b9       	out	0x0c, r24	; 12
    1cf4:	08 95       	ret

00001cf6 <UART_u8ReadByteNoBlock>:
    1cf6:	8c b1       	in	r24, 0x0c	; 12
    1cf8:	08 95       	ret

00001cfa <UART_u8ReadByteAsynch>:
    1cfa:	fc 01       	movw	r30, r24
    1cfc:	8b b1       	in	r24, 0x0b	; 11
    1cfe:	2b b1       	in	r18, 0x0b	; 11
    1d00:	90 e0       	ldi	r25, 0x00	; 0
    1d02:	8f 77       	andi	r24, 0x7F	; 127
    1d04:	30 e0       	ldi	r19, 0x00	; 0
    1d06:	82 17       	cp	r24, r18
    1d08:	93 07       	cpc	r25, r19
    1d0a:	11 f4       	brne	.+4      	; 0x1d10 <UART_u8ReadByteAsynch+0x16>
    1d0c:	80 e0       	ldi	r24, 0x00	; 0
    1d0e:	08 95       	ret
    1d10:	8c b1       	in	r24, 0x0c	; 12
    1d12:	80 83       	st	Z, r24
    1d14:	81 e0       	ldi	r24, 0x01	; 1
    1d16:	08 95       	ret

00001d18 <UART_voidRXInterruptEnable>:
    1d18:	57 9a       	sbi	0x0a, 7	; 10
    1d1a:	08 95       	ret

00001d1c <UART_voidRXInterruptDisable>:
    1d1c:	57 98       	cbi	0x0a, 7	; 10
    1d1e:	08 95       	ret

00001d20 <UART_voidTXInterruptEnable>:
    1d20:	56 9a       	sbi	0x0a, 6	; 10
    1d22:	08 95       	ret

00001d24 <UART_voidTXInterruptDisable>:
    1d24:	56 98       	cbi	0x0a, 6	; 10
    1d26:	08 95       	ret

00001d28 <UART_voidUDRInterruptEnable>:
    1d28:	55 9a       	sbi	0x0a, 5	; 10
    1d2a:	08 95       	ret

00001d2c <UART_voidUDRInterruptDisable>:
    1d2c:	55 98       	cbi	0x0a, 5	; 10
    1d2e:	08 95       	ret

00001d30 <UART_voidSetCallRXC>:
    1d30:	90 93 d8 01 	sts	0x01D8, r25
    1d34:	80 93 d7 01 	sts	0x01D7, r24
    1d38:	08 95       	ret

00001d3a <UART_voidSetCallUDRE>:
    1d3a:	90 93 d6 01 	sts	0x01D6, r25
    1d3e:	80 93 d5 01 	sts	0x01D5, r24
    1d42:	08 95       	ret

00001d44 <UART_voidSetCallTXC>:
    1d44:	90 93 d4 01 	sts	0x01D4, r25
    1d48:	80 93 d3 01 	sts	0x01D3, r24
    1d4c:	08 95       	ret

00001d4e <__vector_13>:
    1d4e:	1f 92       	push	r1
    1d50:	0f 92       	push	r0
    1d52:	0f b6       	in	r0, 0x3f	; 63
    1d54:	0f 92       	push	r0
    1d56:	11 24       	eor	r1, r1
    1d58:	2f 93       	push	r18
    1d5a:	3f 93       	push	r19
    1d5c:	4f 93       	push	r20
    1d5e:	5f 93       	push	r21
    1d60:	6f 93       	push	r22
    1d62:	7f 93       	push	r23
    1d64:	8f 93       	push	r24
    1d66:	9f 93       	push	r25
    1d68:	af 93       	push	r26
    1d6a:	bf 93       	push	r27
    1d6c:	ef 93       	push	r30
    1d6e:	ff 93       	push	r31
    1d70:	e0 91 d7 01 	lds	r30, 0x01D7
    1d74:	f0 91 d8 01 	lds	r31, 0x01D8
    1d78:	30 97       	sbiw	r30, 0x00	; 0
    1d7a:	09 f0       	breq	.+2      	; 0x1d7e <__vector_13+0x30>
    1d7c:	09 95       	icall
    1d7e:	ff 91       	pop	r31
    1d80:	ef 91       	pop	r30
    1d82:	bf 91       	pop	r27
    1d84:	af 91       	pop	r26
    1d86:	9f 91       	pop	r25
    1d88:	8f 91       	pop	r24
    1d8a:	7f 91       	pop	r23
    1d8c:	6f 91       	pop	r22
    1d8e:	5f 91       	pop	r21
    1d90:	4f 91       	pop	r20
    1d92:	3f 91       	pop	r19
    1d94:	2f 91       	pop	r18
    1d96:	0f 90       	pop	r0
    1d98:	0f be       	out	0x3f, r0	; 63
    1d9a:	0f 90       	pop	r0
    1d9c:	1f 90       	pop	r1
    1d9e:	18 95       	reti

00001da0 <__vector_14>:
    1da0:	1f 92       	push	r1
    1da2:	0f 92       	push	r0
    1da4:	0f b6       	in	r0, 0x3f	; 63
    1da6:	0f 92       	push	r0
    1da8:	11 24       	eor	r1, r1
    1daa:	2f 93       	push	r18
    1dac:	3f 93       	push	r19
    1dae:	4f 93       	push	r20
    1db0:	5f 93       	push	r21
    1db2:	6f 93       	push	r22
    1db4:	7f 93       	push	r23
    1db6:	8f 93       	push	r24
    1db8:	9f 93       	push	r25
    1dba:	af 93       	push	r26
    1dbc:	bf 93       	push	r27
    1dbe:	ef 93       	push	r30
    1dc0:	ff 93       	push	r31
    1dc2:	e0 91 d5 01 	lds	r30, 0x01D5
    1dc6:	f0 91 d6 01 	lds	r31, 0x01D6
    1dca:	30 97       	sbiw	r30, 0x00	; 0
    1dcc:	09 f0       	breq	.+2      	; 0x1dd0 <__vector_14+0x30>
    1dce:	09 95       	icall
    1dd0:	ff 91       	pop	r31
    1dd2:	ef 91       	pop	r30
    1dd4:	bf 91       	pop	r27
    1dd6:	af 91       	pop	r26
    1dd8:	9f 91       	pop	r25
    1dda:	8f 91       	pop	r24
    1ddc:	7f 91       	pop	r23
    1dde:	6f 91       	pop	r22
    1de0:	5f 91       	pop	r21
    1de2:	4f 91       	pop	r20
    1de4:	3f 91       	pop	r19
    1de6:	2f 91       	pop	r18
    1de8:	0f 90       	pop	r0
    1dea:	0f be       	out	0x3f, r0	; 63
    1dec:	0f 90       	pop	r0
    1dee:	1f 90       	pop	r1
    1df0:	18 95       	reti

00001df2 <__vector_15>:
    1df2:	1f 92       	push	r1
    1df4:	0f 92       	push	r0
    1df6:	0f b6       	in	r0, 0x3f	; 63
    1df8:	0f 92       	push	r0
    1dfa:	11 24       	eor	r1, r1
    1dfc:	2f 93       	push	r18
    1dfe:	3f 93       	push	r19
    1e00:	4f 93       	push	r20
    1e02:	5f 93       	push	r21
    1e04:	6f 93       	push	r22
    1e06:	7f 93       	push	r23
    1e08:	8f 93       	push	r24
    1e0a:	9f 93       	push	r25
    1e0c:	af 93       	push	r26
    1e0e:	bf 93       	push	r27
    1e10:	ef 93       	push	r30
    1e12:	ff 93       	push	r31
    1e14:	e0 91 d3 01 	lds	r30, 0x01D3
    1e18:	f0 91 d4 01 	lds	r31, 0x01D4
    1e1c:	30 97       	sbiw	r30, 0x00	; 0
    1e1e:	09 f0       	breq	.+2      	; 0x1e22 <__vector_15+0x30>
    1e20:	09 95       	icall
    1e22:	ff 91       	pop	r31
    1e24:	ef 91       	pop	r30
    1e26:	bf 91       	pop	r27
    1e28:	af 91       	pop	r26
    1e2a:	9f 91       	pop	r25
    1e2c:	8f 91       	pop	r24
    1e2e:	7f 91       	pop	r23
    1e30:	6f 91       	pop	r22
    1e32:	5f 91       	pop	r21
    1e34:	4f 91       	pop	r20
    1e36:	3f 91       	pop	r19
    1e38:	2f 91       	pop	r18
    1e3a:	0f 90       	pop	r0
    1e3c:	0f be       	out	0x3f, r0	; 63
    1e3e:	0f 90       	pop	r0
    1e40:	1f 90       	pop	r1
    1e42:	18 95       	reti

00001e44 <UART_voidReadStringAsynch>:
    1e44:	0f 93       	push	r16
    1e46:	1f 93       	push	r17
    1e48:	8c 01       	movw	r16, r24
    1e4a:	82 e3       	ldi	r24, 0x32	; 50
    1e4c:	9f e0       	ldi	r25, 0x0F	; 15
    1e4e:	0e 94 98 0e 	call	0x1d30	; 0x1d30 <UART_voidSetCallRXC>
    1e52:	0e 94 8c 0e 	call	0x1d18	; 0x1d18 <UART_voidRXInterruptEnable>
    1e56:	10 93 dd 01 	sts	0x01DD, r17
    1e5a:	00 93 dc 01 	sts	0x01DC, r16
    1e5e:	1f 91       	pop	r17
    1e60:	0f 91       	pop	r16
    1e62:	08 95       	ret

00001e64 <raedAsynch_CallBack>:
    1e64:	0f 93       	push	r16
    1e66:	1f 93       	push	r17
    1e68:	80 91 d9 01 	lds	r24, 0x01D9
    1e6c:	00 91 dc 01 	lds	r16, 0x01DC
    1e70:	10 91 dd 01 	lds	r17, 0x01DD
    1e74:	08 0f       	add	r16, r24
    1e76:	11 1d       	adc	r17, r1
    1e78:	0e 94 7b 0e 	call	0x1cf6	; 0x1cf6 <UART_u8ReadByteNoBlock>
    1e7c:	f8 01       	movw	r30, r16
    1e7e:	80 83       	st	Z, r24
    1e80:	90 91 d9 01 	lds	r25, 0x01D9
    1e84:	e0 91 dc 01 	lds	r30, 0x01DC
    1e88:	f0 91 dd 01 	lds	r31, 0x01DD
    1e8c:	e9 0f       	add	r30, r25
    1e8e:	f1 1d       	adc	r31, r1
    1e90:	80 81       	ld	r24, Z
    1e92:	83 32       	cpi	r24, 0x23	; 35
    1e94:	21 f4       	brne	.+8      	; 0x1e9e <raedAsynch_CallBack+0x3a>
    1e96:	10 82       	st	Z, r1
    1e98:	10 92 d9 01 	sts	0x01D9, r1
    1e9c:	03 c0       	rjmp	.+6      	; 0x1ea4 <raedAsynch_CallBack+0x40>
    1e9e:	9f 5f       	subi	r25, 0xFF	; 255
    1ea0:	90 93 d9 01 	sts	0x01D9, r25
    1ea4:	1f 91       	pop	r17
    1ea6:	0f 91       	pop	r16
    1ea8:	08 95       	ret

00001eaa <UART_voidSendStringAsynch>:
    1eaa:	0f 93       	push	r16
    1eac:	1f 93       	push	r17
    1eae:	8c 01       	movw	r16, r24
    1eb0:	89 e6       	ldi	r24, 0x69	; 105
    1eb2:	9f e0       	ldi	r25, 0x0F	; 15
    1eb4:	0e 94 a2 0e 	call	0x1d44	; 0x1d44 <UART_voidSetCallTXC>
    1eb8:	0e 94 90 0e 	call	0x1d20	; 0x1d20 <UART_voidTXInterruptEnable>
    1ebc:	f8 01       	movw	r30, r16
    1ebe:	80 81       	ld	r24, Z
    1ec0:	0e 94 79 0e 	call	0x1cf2	; 0x1cf2 <UART_voidSendByteNoBlock>
    1ec4:	10 93 db 01 	sts	0x01DB, r17
    1ec8:	00 93 da 01 	sts	0x01DA, r16
    1ecc:	1f 91       	pop	r17
    1ece:	0f 91       	pop	r16
    1ed0:	08 95       	ret

00001ed2 <sendAsynch_CallBack>:
    1ed2:	80 91 78 00 	lds	r24, 0x0078
    1ed6:	e0 91 da 01 	lds	r30, 0x01DA
    1eda:	f0 91 db 01 	lds	r31, 0x01DB
    1ede:	e8 0f       	add	r30, r24
    1ee0:	f1 1d       	adc	r31, r1
    1ee2:	80 81       	ld	r24, Z
    1ee4:	88 23       	and	r24, r24
    1ee6:	31 f0       	breq	.+12     	; 0x1ef4 <sendAsynch_CallBack+0x22>
    1ee8:	0e 94 79 0e 	call	0x1cf2	; 0x1cf2 <UART_voidSendByteNoBlock>
    1eec:	80 91 78 00 	lds	r24, 0x0078
    1ef0:	8f 5f       	subi	r24, 0xFF	; 255
    1ef2:	01 c0       	rjmp	.+2      	; 0x1ef6 <sendAsynch_CallBack+0x24>
    1ef4:	81 e0       	ldi	r24, 0x01	; 1
    1ef6:	80 93 78 00 	sts	0x0078, r24
    1efa:	08 95       	ret

00001efc <UART_voidReadStringSynch>:
    1efc:	1f 93       	push	r17
    1efe:	cf 93       	push	r28
    1f00:	df 93       	push	r29
    1f02:	ec 01       	movw	r28, r24
    1f04:	0e 94 6f 0e 	call	0x1cde	; 0x1cde <UART_u8ReadByteSynch>
    1f08:	88 83       	st	Y, r24
    1f0a:	10 e0       	ldi	r17, 0x00	; 0
    1f0c:	07 c0       	rjmp	.+14     	; 0x1f1c <UART_voidReadStringSynch+0x20>
    1f0e:	1f 5f       	subi	r17, 0xFF	; 255
    1f10:	0e 94 6f 0e 	call	0x1cde	; 0x1cde <UART_u8ReadByteSynch>
    1f14:	fe 01       	movw	r30, r28
    1f16:	e1 0f       	add	r30, r17
    1f18:	f1 1d       	adc	r31, r1
    1f1a:	80 83       	st	Z, r24
    1f1c:	fe 01       	movw	r30, r28
    1f1e:	e1 0f       	add	r30, r17
    1f20:	f1 1d       	adc	r31, r1
    1f22:	80 81       	ld	r24, Z
    1f24:	83 32       	cpi	r24, 0x23	; 35
    1f26:	99 f7       	brne	.-26     	; 0x1f0e <UART_voidReadStringSynch+0x12>
    1f28:	10 82       	st	Z, r1
    1f2a:	df 91       	pop	r29
    1f2c:	cf 91       	pop	r28
    1f2e:	1f 91       	pop	r17
    1f30:	08 95       	ret

00001f32 <UART_voidSendStringSynch>:
    1f32:	cf 93       	push	r28
    1f34:	df 93       	push	r29
    1f36:	ec 01       	movw	r28, r24
    1f38:	03 c0       	rjmp	.+6      	; 0x1f40 <UART_voidSendStringSynch+0xe>
    1f3a:	0e 94 64 0e 	call	0x1cc8	; 0x1cc8 <UART_voidSendByteSynch>
    1f3e:	21 96       	adiw	r28, 0x01	; 1
    1f40:	88 81       	ld	r24, Y
    1f42:	88 23       	and	r24, r24
    1f44:	d1 f7       	brne	.-12     	; 0x1f3a <UART_voidSendStringSynch+0x8>
    1f46:	df 91       	pop	r29
    1f48:	cf 91       	pop	r28
    1f4a:	08 95       	ret

00001f4c <SPI_voidInit>:
    1f4c:	6c 9a       	sbi	0x0d, 4	; 13
    1f4e:	6a 9a       	sbi	0x0d, 2	; 13
    1f50:	6b 98       	cbi	0x0d, 3	; 13
    1f52:	6d 9a       	sbi	0x0d, 5	; 13
    1f54:	68 9a       	sbi	0x0d, 0	; 13
    1f56:	69 98       	cbi	0x0d, 1	; 13
    1f58:	70 98       	cbi	0x0e, 0	; 14
    1f5a:	6e 9a       	sbi	0x0d, 6	; 13
    1f5c:	08 95       	ret

00001f5e <SPI_u8SendRecieveData>:
    1f5e:	8f b9       	out	0x0f, r24	; 15
    1f60:	8e b1       	in	r24, 0x0e	; 14
    1f62:	2e b1       	in	r18, 0x0e	; 14
    1f64:	90 e0       	ldi	r25, 0x00	; 0
    1f66:	8f 77       	andi	r24, 0x7F	; 127
    1f68:	30 e0       	ldi	r19, 0x00	; 0
    1f6a:	82 17       	cp	r24, r18
    1f6c:	93 07       	cpc	r25, r19
    1f6e:	c1 f3       	breq	.-16     	; 0x1f60 <SPI_u8SendRecieveData+0x2>
    1f70:	8f b1       	in	r24, 0x0f	; 15
    1f72:	08 95       	ret

00001f74 <SPI_voidInterruptEnable>:
    1f74:	6f 9a       	sbi	0x0d, 7	; 13
    1f76:	08 95       	ret

00001f78 <SPI_voidInterruptDisable>:
    1f78:	6f 98       	cbi	0x0d, 7	; 13
    1f7a:	08 95       	ret

00001f7c <SPI_voidSetCallBack>:
    1f7c:	90 93 df 01 	sts	0x01DF, r25
    1f80:	80 93 de 01 	sts	0x01DE, r24
    1f84:	08 95       	ret

00001f86 <__vector_12>:
    1f86:	1f 92       	push	r1
    1f88:	0f 92       	push	r0
    1f8a:	0f b6       	in	r0, 0x3f	; 63
    1f8c:	0f 92       	push	r0
    1f8e:	11 24       	eor	r1, r1
    1f90:	2f 93       	push	r18
    1f92:	3f 93       	push	r19
    1f94:	4f 93       	push	r20
    1f96:	5f 93       	push	r21
    1f98:	6f 93       	push	r22
    1f9a:	7f 93       	push	r23
    1f9c:	8f 93       	push	r24
    1f9e:	9f 93       	push	r25
    1fa0:	af 93       	push	r26
    1fa2:	bf 93       	push	r27
    1fa4:	ef 93       	push	r30
    1fa6:	ff 93       	push	r31
    1fa8:	e0 91 de 01 	lds	r30, 0x01DE
    1fac:	f0 91 df 01 	lds	r31, 0x01DF
    1fb0:	30 97       	sbiw	r30, 0x00	; 0
    1fb2:	09 f0       	breq	.+2      	; 0x1fb6 <__vector_12+0x30>
    1fb4:	09 95       	icall
    1fb6:	ff 91       	pop	r31
    1fb8:	ef 91       	pop	r30
    1fba:	bf 91       	pop	r27
    1fbc:	af 91       	pop	r26
    1fbe:	9f 91       	pop	r25
    1fc0:	8f 91       	pop	r24
    1fc2:	7f 91       	pop	r23
    1fc4:	6f 91       	pop	r22
    1fc6:	5f 91       	pop	r21
    1fc8:	4f 91       	pop	r20
    1fca:	3f 91       	pop	r19
    1fcc:	2f 91       	pop	r18
    1fce:	0f 90       	pop	r0
    1fd0:	0f be       	out	0x3f, r0	; 63
    1fd2:	0f 90       	pop	r0
    1fd4:	1f 90       	pop	r1
    1fd6:	18 95       	reti

00001fd8 <TWI_voidInit>:
    1fd8:	96 b7       	in	r25, 0x36	; 54
    1fda:	90 64       	ori	r25, 0x40	; 64
    1fdc:	96 bf       	out	0x36, r25	; 54
    1fde:	92 e0       	ldi	r25, 0x02	; 2
    1fe0:	90 b9       	out	0x00, r25	; 0
    1fe2:	11 b8       	out	0x01, r1	; 1
    1fe4:	88 0f       	add	r24, r24
    1fe6:	82 b9       	out	0x02, r24	; 2
    1fe8:	86 b7       	in	r24, 0x36	; 54
    1fea:	84 60       	ori	r24, 0x04	; 4
    1fec:	86 bf       	out	0x36, r24	; 54
    1fee:	08 95       	ret

00001ff0 <TWI_u8Start>:
    1ff0:	84 ea       	ldi	r24, 0xA4	; 164
    1ff2:	86 bf       	out	0x36, r24	; 54
    1ff4:	86 b7       	in	r24, 0x36	; 54
    1ff6:	26 b7       	in	r18, 0x36	; 54
    1ff8:	90 e0       	ldi	r25, 0x00	; 0
    1ffa:	8f 77       	andi	r24, 0x7F	; 127
    1ffc:	30 e0       	ldi	r19, 0x00	; 0
    1ffe:	82 17       	cp	r24, r18
    2000:	93 07       	cpc	r25, r19
    2002:	c1 f3       	breq	.-16     	; 0x1ff4 <TWI_u8Start+0x4>
    2004:	81 b1       	in	r24, 0x01	; 1
    2006:	20 e0       	ldi	r18, 0x00	; 0
    2008:	30 e0       	ldi	r19, 0x00	; 0
    200a:	88 7f       	andi	r24, 0xF8	; 248
    200c:	88 30       	cpi	r24, 0x08	; 8
    200e:	11 f0       	breq	.+4      	; 0x2014 <TWI_u8Start+0x24>
    2010:	21 e0       	ldi	r18, 0x01	; 1
    2012:	30 e0       	ldi	r19, 0x00	; 0
    2014:	c9 01       	movw	r24, r18
    2016:	08 95       	ret

00002018 <TWI_u8SendSlaveAddWrite>:
    2018:	88 0f       	add	r24, r24
    201a:	83 b9       	out	0x03, r24	; 3
    201c:	84 e8       	ldi	r24, 0x84	; 132
    201e:	86 bf       	out	0x36, r24	; 54
    2020:	86 b7       	in	r24, 0x36	; 54
    2022:	26 b7       	in	r18, 0x36	; 54
    2024:	90 e0       	ldi	r25, 0x00	; 0
    2026:	8f 77       	andi	r24, 0x7F	; 127
    2028:	30 e0       	ldi	r19, 0x00	; 0
    202a:	82 17       	cp	r24, r18
    202c:	93 07       	cpc	r25, r19
    202e:	c1 f3       	breq	.-16     	; 0x2020 <TWI_u8SendSlaveAddWrite+0x8>
    2030:	81 b1       	in	r24, 0x01	; 1
    2032:	88 7f       	andi	r24, 0xF8	; 248
    2034:	88 31       	cpi	r24, 0x18	; 24
    2036:	19 f4       	brne	.+6      	; 0x203e <TWI_u8SendSlaveAddWrite+0x26>
    2038:	20 e0       	ldi	r18, 0x00	; 0
    203a:	30 e0       	ldi	r19, 0x00	; 0
    203c:	02 c0       	rjmp	.+4      	; 0x2042 <TWI_u8SendSlaveAddWrite+0x2a>
    203e:	22 e0       	ldi	r18, 0x02	; 2
    2040:	30 e0       	ldi	r19, 0x00	; 0
    2042:	c9 01       	movw	r24, r18
    2044:	08 95       	ret

00002046 <TWI_u8SendData>:
    2046:	83 b9       	out	0x03, r24	; 3
    2048:	84 e8       	ldi	r24, 0x84	; 132
    204a:	86 bf       	out	0x36, r24	; 54
    204c:	86 b7       	in	r24, 0x36	; 54
    204e:	26 b7       	in	r18, 0x36	; 54
    2050:	90 e0       	ldi	r25, 0x00	; 0
    2052:	8f 77       	andi	r24, 0x7F	; 127
    2054:	30 e0       	ldi	r19, 0x00	; 0
    2056:	82 17       	cp	r24, r18
    2058:	93 07       	cpc	r25, r19
    205a:	c1 f3       	breq	.-16     	; 0x204c <TWI_u8SendData+0x6>
    205c:	81 b1       	in	r24, 0x01	; 1
    205e:	88 7f       	andi	r24, 0xF8	; 248
    2060:	88 32       	cpi	r24, 0x28	; 40
    2062:	19 f4       	brne	.+6      	; 0x206a <TWI_u8SendData+0x24>
    2064:	20 e0       	ldi	r18, 0x00	; 0
    2066:	30 e0       	ldi	r19, 0x00	; 0
    2068:	02 c0       	rjmp	.+4      	; 0x206e <TWI_u8SendData+0x28>
    206a:	23 e0       	ldi	r18, 0x03	; 3
    206c:	30 e0       	ldi	r19, 0x00	; 0
    206e:	c9 01       	movw	r24, r18
    2070:	08 95       	ret

00002072 <TWI_u8SendReStart>:
    2072:	84 ea       	ldi	r24, 0xA4	; 164
    2074:	86 bf       	out	0x36, r24	; 54
    2076:	86 b7       	in	r24, 0x36	; 54
    2078:	26 b7       	in	r18, 0x36	; 54
    207a:	90 e0       	ldi	r25, 0x00	; 0
    207c:	8f 77       	andi	r24, 0x7F	; 127
    207e:	30 e0       	ldi	r19, 0x00	; 0
    2080:	82 17       	cp	r24, r18
    2082:	93 07       	cpc	r25, r19
    2084:	c1 f3       	breq	.-16     	; 0x2076 <TWI_u8SendReStart+0x4>
    2086:	81 b1       	in	r24, 0x01	; 1
    2088:	88 7f       	andi	r24, 0xF8	; 248
    208a:	80 31       	cpi	r24, 0x10	; 16
    208c:	19 f4       	brne	.+6      	; 0x2094 <TWI_u8SendReStart+0x22>
    208e:	20 e0       	ldi	r18, 0x00	; 0
    2090:	30 e0       	ldi	r19, 0x00	; 0
    2092:	02 c0       	rjmp	.+4      	; 0x2098 <TWI_u8SendReStart+0x26>
    2094:	25 e0       	ldi	r18, 0x05	; 5
    2096:	30 e0       	ldi	r19, 0x00	; 0
    2098:	c9 01       	movw	r24, r18
    209a:	08 95       	ret

0000209c <TWI_u8SendSlaveAddRead>:
    209c:	88 0f       	add	r24, r24
    209e:	81 60       	ori	r24, 0x01	; 1
    20a0:	83 b9       	out	0x03, r24	; 3
    20a2:	84 e8       	ldi	r24, 0x84	; 132
    20a4:	86 bf       	out	0x36, r24	; 54
    20a6:	86 b7       	in	r24, 0x36	; 54
    20a8:	26 b7       	in	r18, 0x36	; 54
    20aa:	90 e0       	ldi	r25, 0x00	; 0
    20ac:	8f 77       	andi	r24, 0x7F	; 127
    20ae:	30 e0       	ldi	r19, 0x00	; 0
    20b0:	82 17       	cp	r24, r18
    20b2:	93 07       	cpc	r25, r19
    20b4:	c1 f3       	breq	.-16     	; 0x20a6 <TWI_u8SendSlaveAddRead+0xa>
    20b6:	81 b1       	in	r24, 0x01	; 1
    20b8:	88 7f       	andi	r24, 0xF8	; 248
    20ba:	80 34       	cpi	r24, 0x40	; 64
    20bc:	19 f4       	brne	.+6      	; 0x20c4 <TWI_u8SendSlaveAddRead+0x28>
    20be:	20 e0       	ldi	r18, 0x00	; 0
    20c0:	30 e0       	ldi	r19, 0x00	; 0
    20c2:	02 c0       	rjmp	.+4      	; 0x20c8 <TWI_u8SendSlaveAddRead+0x2c>
    20c4:	26 e0       	ldi	r18, 0x06	; 6
    20c6:	30 e0       	ldi	r19, 0x00	; 0
    20c8:	c9 01       	movw	r24, r18
    20ca:	08 95       	ret

000020cc <TWI_u8ReadData>:
    20cc:	fb 01       	movw	r30, r22
    20ce:	82 95       	swap	r24
    20d0:	88 0f       	add	r24, r24
    20d2:	88 0f       	add	r24, r24
    20d4:	80 7c       	andi	r24, 0xC0	; 192
    20d6:	84 68       	ori	r24, 0x84	; 132
    20d8:	86 bf       	out	0x36, r24	; 54
    20da:	86 b7       	in	r24, 0x36	; 54
    20dc:	26 b7       	in	r18, 0x36	; 54
    20de:	90 e0       	ldi	r25, 0x00	; 0
    20e0:	8f 77       	andi	r24, 0x7F	; 127
    20e2:	30 e0       	ldi	r19, 0x00	; 0
    20e4:	82 17       	cp	r24, r18
    20e6:	93 07       	cpc	r25, r19
    20e8:	c1 f3       	breq	.-16     	; 0x20da <TWI_u8ReadData+0xe>
    20ea:	83 b1       	in	r24, 0x03	; 3
    20ec:	80 83       	st	Z, r24
    20ee:	08 95       	ret

000020f0 <TWI_voidStop>:
    20f0:	84 e9       	ldi	r24, 0x94	; 148
    20f2:	86 bf       	out	0x36, r24	; 54
    20f4:	08 95       	ret

000020f6 <TWI_voidSetCallBack>:
    20f6:	90 93 e1 01 	sts	0x01E1, r25
    20fa:	80 93 e0 01 	sts	0x01E0, r24
    20fe:	08 95       	ret

00002100 <TWI_voidSetInterruptEnable>:
    2100:	86 b7       	in	r24, 0x36	; 54
    2102:	81 60       	ori	r24, 0x01	; 1
    2104:	86 bf       	out	0x36, r24	; 54
    2106:	08 95       	ret

00002108 <TWI_voidSetIntDisable>:
    2108:	86 b7       	in	r24, 0x36	; 54
    210a:	8e 7f       	andi	r24, 0xFE	; 254
    210c:	86 bf       	out	0x36, r24	; 54
    210e:	08 95       	ret

00002110 <__vector_19>:
    2110:	1f 92       	push	r1
    2112:	0f 92       	push	r0
    2114:	0f b6       	in	r0, 0x3f	; 63
    2116:	0f 92       	push	r0
    2118:	11 24       	eor	r1, r1
    211a:	2f 93       	push	r18
    211c:	3f 93       	push	r19
    211e:	4f 93       	push	r20
    2120:	5f 93       	push	r21
    2122:	6f 93       	push	r22
    2124:	7f 93       	push	r23
    2126:	8f 93       	push	r24
    2128:	9f 93       	push	r25
    212a:	af 93       	push	r26
    212c:	bf 93       	push	r27
    212e:	ef 93       	push	r30
    2130:	ff 93       	push	r31
    2132:	e0 91 e0 01 	lds	r30, 0x01E0
    2136:	f0 91 e1 01 	lds	r31, 0x01E1
    213a:	30 97       	sbiw	r30, 0x00	; 0
    213c:	09 f0       	breq	.+2      	; 0x2140 <__vector_19+0x30>
    213e:	09 95       	icall
    2140:	ff 91       	pop	r31
    2142:	ef 91       	pop	r30
    2144:	bf 91       	pop	r27
    2146:	af 91       	pop	r26
    2148:	9f 91       	pop	r25
    214a:	8f 91       	pop	r24
    214c:	7f 91       	pop	r23
    214e:	6f 91       	pop	r22
    2150:	5f 91       	pop	r21
    2152:	4f 91       	pop	r20
    2154:	3f 91       	pop	r19
    2156:	2f 91       	pop	r18
    2158:	0f 90       	pop	r0
    215a:	0f be       	out	0x3f, r0	; 63
    215c:	0f 90       	pop	r0
    215e:	1f 90       	pop	r1
    2160:	18 95       	reti

00002162 <RTC_u8GetDate>:
    2162:	df 92       	push	r13
    2164:	ef 92       	push	r14
    2166:	ff 92       	push	r15
    2168:	0f 93       	push	r16
    216a:	1f 93       	push	r17
    216c:	cf 93       	push	r28
    216e:	df 93       	push	r29
    2170:	7c 01       	movw	r14, r24
    2172:	eb 01       	movw	r28, r22
    2174:	0e 94 39 10 	call	0x2072	; 0x2072 <TWI_u8SendReStart>
    2178:	88 e6       	ldi	r24, 0x68	; 104
    217a:	0e 94 0c 10 	call	0x2018	; 0x2018 <TWI_u8SendSlaveAddWrite>
    217e:	83 e0       	ldi	r24, 0x03	; 3
    2180:	0e 94 23 10 	call	0x2046	; 0x2046 <TWI_u8SendData>
    2184:	0e 94 39 10 	call	0x2072	; 0x2072 <TWI_u8SendReStart>
    2188:	88 e6       	ldi	r24, 0x68	; 104
    218a:	0e 94 4e 10 	call	0x209c	; 0x209c <TWI_u8SendSlaveAddRead>
    218e:	08 2f       	mov	r16, r24
    2190:	d9 2e       	mov	r13, r25
    2192:	81 e0       	ldi	r24, 0x01	; 1
    2194:	b7 01       	movw	r22, r14
    2196:	0e 94 66 10 	call	0x20cc	; 0x20cc <TWI_u8ReadData>
    219a:	f7 01       	movw	r30, r14
    219c:	80 81       	ld	r24, Z
    219e:	28 2f       	mov	r18, r24
    21a0:	22 95       	swap	r18
    21a2:	2f 70       	andi	r18, 0x0F	; 15
    21a4:	9a e0       	ldi	r25, 0x0A	; 10
    21a6:	29 9f       	mul	r18, r25
    21a8:	90 01       	movw	r18, r0
    21aa:	11 24       	eor	r1, r1
    21ac:	8f 70       	andi	r24, 0x0F	; 15
    21ae:	82 0f       	add	r24, r18
    21b0:	80 83       	st	Z, r24
    21b2:	84 30       	cpi	r24, 0x04	; 4
    21b4:	e1 f0       	breq	.+56     	; 0x21ee <RTC_u8GetDate+0x8c>
    21b6:	85 30       	cpi	r24, 0x05	; 5
    21b8:	38 f4       	brcc	.+14     	; 0x21c8 <RTC_u8GetDate+0x66>
    21ba:	82 30       	cpi	r24, 0x02	; 2
    21bc:	81 f0       	breq	.+32     	; 0x21de <RTC_u8GetDate+0x7c>
    21be:	83 30       	cpi	r24, 0x03	; 3
    21c0:	90 f4       	brcc	.+36     	; 0x21e6 <RTC_u8GetDate+0x84>
    21c2:	81 30       	cpi	r24, 0x01	; 1
    21c4:	21 f5       	brne	.+72     	; 0x220e <RTC_u8GetDate+0xac>
    21c6:	07 c0       	rjmp	.+14     	; 0x21d6 <RTC_u8GetDate+0x74>
    21c8:	86 30       	cpi	r24, 0x06	; 6
    21ca:	c9 f0       	breq	.+50     	; 0x21fe <RTC_u8GetDate+0x9c>
    21cc:	86 30       	cpi	r24, 0x06	; 6
    21ce:	98 f0       	brcs	.+38     	; 0x21f6 <RTC_u8GetDate+0x94>
    21d0:	87 30       	cpi	r24, 0x07	; 7
    21d2:	e9 f4       	brne	.+58     	; 0x220e <RTC_u8GetDate+0xac>
    21d4:	18 c0       	rjmp	.+48     	; 0x2206 <RTC_u8GetDate+0xa4>
    21d6:	ce 01       	movw	r24, r28
    21d8:	69 e7       	ldi	r22, 0x79	; 121
    21da:	70 e0       	ldi	r23, 0x00	; 0
    21dc:	1b c0       	rjmp	.+54     	; 0x2214 <RTC_u8GetDate+0xb2>
    21de:	ce 01       	movw	r24, r28
    21e0:	6d e7       	ldi	r22, 0x7D	; 125
    21e2:	70 e0       	ldi	r23, 0x00	; 0
    21e4:	17 c0       	rjmp	.+46     	; 0x2214 <RTC_u8GetDate+0xb2>
    21e6:	ce 01       	movw	r24, r28
    21e8:	61 e8       	ldi	r22, 0x81	; 129
    21ea:	70 e0       	ldi	r23, 0x00	; 0
    21ec:	13 c0       	rjmp	.+38     	; 0x2214 <RTC_u8GetDate+0xb2>
    21ee:	ce 01       	movw	r24, r28
    21f0:	65 e8       	ldi	r22, 0x85	; 133
    21f2:	70 e0       	ldi	r23, 0x00	; 0
    21f4:	0f c0       	rjmp	.+30     	; 0x2214 <RTC_u8GetDate+0xb2>
    21f6:	ce 01       	movw	r24, r28
    21f8:	69 e8       	ldi	r22, 0x89	; 137
    21fa:	70 e0       	ldi	r23, 0x00	; 0
    21fc:	0b c0       	rjmp	.+22     	; 0x2214 <RTC_u8GetDate+0xb2>
    21fe:	ce 01       	movw	r24, r28
    2200:	6d e8       	ldi	r22, 0x8D	; 141
    2202:	70 e0       	ldi	r23, 0x00	; 0
    2204:	07 c0       	rjmp	.+14     	; 0x2214 <RTC_u8GetDate+0xb2>
    2206:	ce 01       	movw	r24, r28
    2208:	61 e9       	ldi	r22, 0x91	; 145
    220a:	70 e0       	ldi	r23, 0x00	; 0
    220c:	03 c0       	rjmp	.+6      	; 0x2214 <RTC_u8GetDate+0xb2>
    220e:	ce 01       	movw	r24, r28
    2210:	65 e9       	ldi	r22, 0x95	; 149
    2212:	70 e0       	ldi	r23, 0x00	; 0
    2214:	0e 94 e9 1a 	call	0x35d2	; 0x35d2 <strcpy>
    2218:	b7 01       	movw	r22, r14
    221a:	6f 5f       	subi	r22, 0xFF	; 255
    221c:	7f 4f       	sbci	r23, 0xFF	; 255
    221e:	81 e0       	ldi	r24, 0x01	; 1
    2220:	0e 94 66 10 	call	0x20cc	; 0x20cc <TWI_u8ReadData>
    2224:	f7 01       	movw	r30, r14
    2226:	21 81       	ldd	r18, Z+1	; 0x01
    2228:	82 2f       	mov	r24, r18
    222a:	82 95       	swap	r24
    222c:	8f 70       	andi	r24, 0x0F	; 15
    222e:	1a e0       	ldi	r17, 0x0A	; 10
    2230:	81 9f       	mul	r24, r17
    2232:	c0 01       	movw	r24, r0
    2234:	11 24       	eor	r1, r1
    2236:	2f 70       	andi	r18, 0x0F	; 15
    2238:	28 0f       	add	r18, r24
    223a:	21 83       	std	Z+1, r18	; 0x01
    223c:	b7 01       	movw	r22, r14
    223e:	6e 5f       	subi	r22, 0xFE	; 254
    2240:	7f 4f       	sbci	r23, 0xFF	; 255
    2242:	81 e0       	ldi	r24, 0x01	; 1
    2244:	0e 94 66 10 	call	0x20cc	; 0x20cc <TWI_u8ReadData>
    2248:	f7 01       	movw	r30, r14
    224a:	22 81       	ldd	r18, Z+2	; 0x02
    224c:	82 2f       	mov	r24, r18
    224e:	82 95       	swap	r24
    2250:	8f 70       	andi	r24, 0x0F	; 15
    2252:	81 9f       	mul	r24, r17
    2254:	c0 01       	movw	r24, r0
    2256:	11 24       	eor	r1, r1
    2258:	2f 70       	andi	r18, 0x0F	; 15
    225a:	28 0f       	add	r18, r24
    225c:	22 83       	std	Z+2, r18	; 0x02
    225e:	b7 01       	movw	r22, r14
    2260:	6d 5f       	subi	r22, 0xFD	; 253
    2262:	7f 4f       	sbci	r23, 0xFF	; 255
    2264:	80 e0       	ldi	r24, 0x00	; 0
    2266:	0e 94 66 10 	call	0x20cc	; 0x20cc <TWI_u8ReadData>
    226a:	f7 01       	movw	r30, r14
    226c:	23 81       	ldd	r18, Z+3	; 0x03
    226e:	82 2f       	mov	r24, r18
    2270:	82 95       	swap	r24
    2272:	8f 70       	andi	r24, 0x0F	; 15
    2274:	81 9f       	mul	r24, r17
    2276:	c0 01       	movw	r24, r0
    2278:	11 24       	eor	r1, r1
    227a:	2f 70       	andi	r18, 0x0F	; 15
    227c:	28 0f       	add	r18, r24
    227e:	23 83       	std	Z+3, r18	; 0x03
    2280:	0e 94 78 10 	call	0x20f0	; 0x20f0 <TWI_voidStop>
    2284:	80 2f       	mov	r24, r16
    2286:	9d 2d       	mov	r25, r13
    2288:	df 91       	pop	r29
    228a:	cf 91       	pop	r28
    228c:	1f 91       	pop	r17
    228e:	0f 91       	pop	r16
    2290:	ff 90       	pop	r15
    2292:	ef 90       	pop	r14
    2294:	df 90       	pop	r13
    2296:	08 95       	ret

00002298 <RTC_u8GetTime>:
    2298:	df 92       	push	r13
    229a:	ef 92       	push	r14
    229c:	ff 92       	push	r15
    229e:	0f 93       	push	r16
    22a0:	1f 93       	push	r17
    22a2:	cf 93       	push	r28
    22a4:	df 93       	push	r29
    22a6:	ec 01       	movw	r28, r24
    22a8:	7b 01       	movw	r14, r22
    22aa:	0e 94 39 10 	call	0x2072	; 0x2072 <TWI_u8SendReStart>
    22ae:	88 e6       	ldi	r24, 0x68	; 104
    22b0:	0e 94 0c 10 	call	0x2018	; 0x2018 <TWI_u8SendSlaveAddWrite>
    22b4:	80 e0       	ldi	r24, 0x00	; 0
    22b6:	0e 94 23 10 	call	0x2046	; 0x2046 <TWI_u8SendData>
    22ba:	0e 94 39 10 	call	0x2072	; 0x2072 <TWI_u8SendReStart>
    22be:	88 e6       	ldi	r24, 0x68	; 104
    22c0:	0e 94 4e 10 	call	0x209c	; 0x209c <TWI_u8SendSlaveAddRead>
    22c4:	08 2f       	mov	r16, r24
    22c6:	d9 2e       	mov	r13, r25
    22c8:	81 e0       	ldi	r24, 0x01	; 1
    22ca:	be 01       	movw	r22, r28
    22cc:	0e 94 66 10 	call	0x20cc	; 0x20cc <TWI_u8ReadData>
    22d0:	be 01       	movw	r22, r28
    22d2:	6f 5f       	subi	r22, 0xFF	; 255
    22d4:	7f 4f       	sbci	r23, 0xFF	; 255
    22d6:	81 e0       	ldi	r24, 0x01	; 1
    22d8:	0e 94 66 10 	call	0x20cc	; 0x20cc <TWI_u8ReadData>
    22dc:	be 01       	movw	r22, r28
    22de:	6e 5f       	subi	r22, 0xFE	; 254
    22e0:	7f 4f       	sbci	r23, 0xFF	; 255
    22e2:	80 e0       	ldi	r24, 0x00	; 0
    22e4:	0e 94 66 10 	call	0x20cc	; 0x20cc <TWI_u8ReadData>
    22e8:	0e 94 78 10 	call	0x20f0	; 0x20f0 <TWI_voidStop>
    22ec:	1a 81       	ldd	r17, Y+2	; 0x02
    22ee:	21 2f       	mov	r18, r17
    22f0:	30 e0       	ldi	r19, 0x00	; 0
    22f2:	c9 01       	movw	r24, r18
    22f4:	8f 7b       	andi	r24, 0xBF	; 191
    22f6:	82 17       	cp	r24, r18
    22f8:	93 07       	cpc	r25, r19
    22fa:	b1 f0       	breq	.+44     	; 0x2328 <RTC_u8GetTime+0x90>
    22fc:	a9 01       	movw	r20, r18
    22fe:	4f 7d       	andi	r20, 0xDF	; 223
    2300:	1b 82       	std	Y+3, r1	; 0x03
    2302:	42 17       	cp	r20, r18
    2304:	53 07       	cpc	r21, r19
    2306:	11 f0       	breq	.+4      	; 0x230c <RTC_u8GetTime+0x74>
    2308:	81 e0       	ldi	r24, 0x01	; 1
    230a:	8b 83       	std	Y+3, r24	; 0x03
    230c:	42 17       	cp	r20, r18
    230e:	53 07       	cpc	r21, r19
    2310:	21 f0       	breq	.+8      	; 0x231a <RTC_u8GetTime+0x82>
    2312:	c7 01       	movw	r24, r14
    2314:	69 e9       	ldi	r22, 0x99	; 153
    2316:	70 e0       	ldi	r23, 0x00	; 0
    2318:	03 c0       	rjmp	.+6      	; 0x2320 <RTC_u8GetTime+0x88>
    231a:	c7 01       	movw	r24, r14
    231c:	6c e9       	ldi	r22, 0x9C	; 156
    231e:	70 e0       	ldi	r23, 0x00	; 0
    2320:	0e 94 e9 1a 	call	0x35d2	; 0x35d2 <strcpy>
    2324:	1f 79       	andi	r17, 0x9F	; 159
    2326:	02 c0       	rjmp	.+4      	; 0x232c <RTC_u8GetTime+0x94>
    2328:	82 e0       	ldi	r24, 0x02	; 2
    232a:	8b 83       	std	Y+3, r24	; 0x03
    232c:	28 81       	ld	r18, Y
    232e:	82 2f       	mov	r24, r18
    2330:	82 95       	swap	r24
    2332:	8f 70       	andi	r24, 0x0F	; 15
    2334:	3a e0       	ldi	r19, 0x0A	; 10
    2336:	83 9f       	mul	r24, r19
    2338:	c0 01       	movw	r24, r0
    233a:	11 24       	eor	r1, r1
    233c:	2f 70       	andi	r18, 0x0F	; 15
    233e:	28 0f       	add	r18, r24
    2340:	28 83       	st	Y, r18
    2342:	29 81       	ldd	r18, Y+1	; 0x01
    2344:	82 2f       	mov	r24, r18
    2346:	82 95       	swap	r24
    2348:	8f 70       	andi	r24, 0x0F	; 15
    234a:	83 9f       	mul	r24, r19
    234c:	c0 01       	movw	r24, r0
    234e:	11 24       	eor	r1, r1
    2350:	2f 70       	andi	r18, 0x0F	; 15
    2352:	28 0f       	add	r18, r24
    2354:	29 83       	std	Y+1, r18	; 0x01
    2356:	81 2f       	mov	r24, r17
    2358:	82 95       	swap	r24
    235a:	8f 70       	andi	r24, 0x0F	; 15
    235c:	83 9f       	mul	r24, r19
    235e:	c0 01       	movw	r24, r0
    2360:	11 24       	eor	r1, r1
    2362:	1f 70       	andi	r17, 0x0F	; 15
    2364:	18 0f       	add	r17, r24
    2366:	1a 83       	std	Y+2, r17	; 0x02
    2368:	80 2f       	mov	r24, r16
    236a:	9d 2d       	mov	r25, r13
    236c:	df 91       	pop	r29
    236e:	cf 91       	pop	r28
    2370:	1f 91       	pop	r17
    2372:	0f 91       	pop	r16
    2374:	ff 90       	pop	r15
    2376:	ef 90       	pop	r14
    2378:	df 90       	pop	r13
    237a:	08 95       	ret

0000237c <RTC_u8ConfigOutSignal>:
    237c:	0f 93       	push	r16
    237e:	1f 93       	push	r17
    2380:	82 30       	cpi	r24, 0x02	; 2
    2382:	91 05       	cpc	r25, r1
    2384:	a1 f0       	breq	.+40     	; 0x23ae <RTC_u8ConfigOutSignal+0x32>
    2386:	83 30       	cpi	r24, 0x03	; 3
    2388:	91 05       	cpc	r25, r1
    238a:	28 f4       	brcc	.+10     	; 0x2396 <RTC_u8ConfigOutSignal+0x1a>
    238c:	00 97       	sbiw	r24, 0x00	; 0
    238e:	49 f0       	breq	.+18     	; 0x23a2 <RTC_u8ConfigOutSignal+0x26>
    2390:	01 97       	sbiw	r24, 0x01	; 1
    2392:	49 f4       	brne	.+18     	; 0x23a6 <RTC_u8ConfigOutSignal+0x2a>
    2394:	0a c0       	rjmp	.+20     	; 0x23aa <RTC_u8ConfigOutSignal+0x2e>
    2396:	83 30       	cpi	r24, 0x03	; 3
    2398:	91 05       	cpc	r25, r1
    239a:	59 f0       	breq	.+22     	; 0x23b2 <RTC_u8ConfigOutSignal+0x36>
    239c:	04 97       	sbiw	r24, 0x04	; 4
    239e:	19 f4       	brne	.+6      	; 0x23a6 <RTC_u8ConfigOutSignal+0x2a>
    23a0:	0a c0       	rjmp	.+20     	; 0x23b6 <RTC_u8ConfigOutSignal+0x3a>
    23a2:	10 e1       	ldi	r17, 0x10	; 16
    23a4:	09 c0       	rjmp	.+18     	; 0x23b8 <RTC_u8ConfigOutSignal+0x3c>
    23a6:	10 e0       	ldi	r17, 0x00	; 0
    23a8:	07 c0       	rjmp	.+14     	; 0x23b8 <RTC_u8ConfigOutSignal+0x3c>
    23aa:	11 e1       	ldi	r17, 0x11	; 17
    23ac:	05 c0       	rjmp	.+10     	; 0x23b8 <RTC_u8ConfigOutSignal+0x3c>
    23ae:	12 e1       	ldi	r17, 0x12	; 18
    23b0:	03 c0       	rjmp	.+6      	; 0x23b8 <RTC_u8ConfigOutSignal+0x3c>
    23b2:	13 e1       	ldi	r17, 0x13	; 19
    23b4:	01 c0       	rjmp	.+2      	; 0x23b8 <RTC_u8ConfigOutSignal+0x3c>
    23b6:	10 e8       	ldi	r17, 0x80	; 128
    23b8:	0e 94 39 10 	call	0x2072	; 0x2072 <TWI_u8SendReStart>
    23bc:	88 e6       	ldi	r24, 0x68	; 104
    23be:	0e 94 0c 10 	call	0x2018	; 0x2018 <TWI_u8SendSlaveAddWrite>
    23c2:	87 e0       	ldi	r24, 0x07	; 7
    23c4:	0e 94 23 10 	call	0x2046	; 0x2046 <TWI_u8SendData>
    23c8:	81 2f       	mov	r24, r17
    23ca:	0e 94 23 10 	call	0x2046	; 0x2046 <TWI_u8SendData>
    23ce:	18 2f       	mov	r17, r24
    23d0:	09 2f       	mov	r16, r25
    23d2:	0e 94 78 10 	call	0x20f0	; 0x20f0 <TWI_voidStop>
    23d6:	81 2f       	mov	r24, r17
    23d8:	90 2f       	mov	r25, r16
    23da:	1f 91       	pop	r17
    23dc:	0f 91       	pop	r16
    23de:	08 95       	ret

000023e0 <RTC_u8SetDate>:
    23e0:	0f 93       	push	r16
    23e2:	1f 93       	push	r17
    23e4:	8c 01       	movw	r16, r24
    23e6:	0e 94 f8 0f 	call	0x1ff0	; 0x1ff0 <TWI_u8Start>
    23ea:	88 e6       	ldi	r24, 0x68	; 104
    23ec:	0e 94 0c 10 	call	0x2018	; 0x2018 <TWI_u8SendSlaveAddWrite>
    23f0:	83 e0       	ldi	r24, 0x03	; 3
    23f2:	0e 94 23 10 	call	0x2046	; 0x2046 <TWI_u8SendData>
    23f6:	f8 01       	movw	r30, r16
    23f8:	80 81       	ld	r24, Z
    23fa:	0e 94 23 10 	call	0x2046	; 0x2046 <TWI_u8SendData>
    23fe:	f8 01       	movw	r30, r16
    2400:	81 81       	ldd	r24, Z+1	; 0x01
    2402:	0e 94 23 10 	call	0x2046	; 0x2046 <TWI_u8SendData>
    2406:	f8 01       	movw	r30, r16
    2408:	82 81       	ldd	r24, Z+2	; 0x02
    240a:	0e 94 23 10 	call	0x2046	; 0x2046 <TWI_u8SendData>
    240e:	f8 01       	movw	r30, r16
    2410:	83 81       	ldd	r24, Z+3	; 0x03
    2412:	0e 94 23 10 	call	0x2046	; 0x2046 <TWI_u8SendData>
    2416:	18 2f       	mov	r17, r24
    2418:	09 2f       	mov	r16, r25
    241a:	0e 94 78 10 	call	0x20f0	; 0x20f0 <TWI_voidStop>
    241e:	81 2f       	mov	r24, r17
    2420:	90 2f       	mov	r25, r16
    2422:	1f 91       	pop	r17
    2424:	0f 91       	pop	r16
    2426:	08 95       	ret

00002428 <RTC_u8SetTime>:
    2428:	0f 93       	push	r16
    242a:	1f 93       	push	r17
    242c:	cf 93       	push	r28
    242e:	df 93       	push	r29
    2430:	ec 01       	movw	r28, r24
    2432:	fb 01       	movw	r30, r22
    2434:	2a 81       	ldd	r18, Y+2	; 0x02
    2436:	62 30       	cpi	r22, 0x02	; 2
    2438:	71 05       	cpc	r23, r1
    243a:	68 f5       	brcc	.+90     	; 0x2496 <RTC_u8SetTime+0x6e>
    243c:	92 2f       	mov	r25, r18
    243e:	92 95       	swap	r25
    2440:	9f 70       	andi	r25, 0x0F	; 15
    2442:	8a e0       	ldi	r24, 0x0A	; 10
    2444:	98 9f       	mul	r25, r24
    2446:	40 2d       	mov	r20, r0
    2448:	11 24       	eor	r1, r1
    244a:	2f 70       	andi	r18, 0x0F	; 15
    244c:	42 0f       	add	r20, r18
    244e:	21 f4       	brne	.+8      	; 0x2458 <RTC_u8SetTime+0x30>
    2450:	e1 e0       	ldi	r30, 0x01	; 1
    2452:	f0 e0       	ldi	r31, 0x00	; 0
    2454:	4c e0       	ldi	r20, 0x0C	; 12
    2456:	07 c0       	rjmp	.+14     	; 0x2466 <RTC_u8SetTime+0x3e>
    2458:	4c 30       	cpi	r20, 0x0C	; 12
    245a:	19 f0       	breq	.+6      	; 0x2462 <RTC_u8SetTime+0x3a>
    245c:	4d 30       	cpi	r20, 0x0D	; 13
    245e:	18 f0       	brcs	.+6      	; 0x2466 <RTC_u8SetTime+0x3e>
    2460:	4c 50       	subi	r20, 0x0C	; 12
    2462:	e0 e0       	ldi	r30, 0x00	; 0
    2464:	f0 e0       	ldi	r31, 0x00	; 0
    2466:	84 2f       	mov	r24, r20
    2468:	6a e0       	ldi	r22, 0x0A	; 10
    246a:	0e 94 55 1a 	call	0x34aa	; 0x34aa <__udivmodqi4>
    246e:	28 2f       	mov	r18, r24
    2470:	30 e0       	ldi	r19, 0x00	; 0
    2472:	84 e0       	ldi	r24, 0x04	; 4
    2474:	22 0f       	add	r18, r18
    2476:	33 1f       	adc	r19, r19
    2478:	8a 95       	dec	r24
    247a:	e1 f7       	brne	.-8      	; 0x2474 <RTC_u8SetTime+0x4c>
    247c:	84 2f       	mov	r24, r20
    247e:	0e 94 55 1a 	call	0x34aa	; 0x34aa <__udivmodqi4>
    2482:	92 2b       	or	r25, r18
    2484:	89 2f       	mov	r24, r25
    2486:	80 64       	ori	r24, 0x40	; 64
    2488:	ef 2b       	or	r30, r31
    248a:	11 f4       	brne	.+4      	; 0x2490 <RTC_u8SetTime+0x68>
    248c:	90 66       	ori	r25, 0x60	; 96
    248e:	02 c0       	rjmp	.+4      	; 0x2494 <RTC_u8SetTime+0x6c>
    2490:	98 2f       	mov	r25, r24
    2492:	9f 7d       	andi	r25, 0xDF	; 223
    2494:	9a 83       	std	Y+2, r25	; 0x02
    2496:	0e 94 f8 0f 	call	0x1ff0	; 0x1ff0 <TWI_u8Start>
    249a:	88 e6       	ldi	r24, 0x68	; 104
    249c:	0e 94 0c 10 	call	0x2018	; 0x2018 <TWI_u8SendSlaveAddWrite>
    24a0:	80 e0       	ldi	r24, 0x00	; 0
    24a2:	0e 94 23 10 	call	0x2046	; 0x2046 <TWI_u8SendData>
    24a6:	88 81       	ld	r24, Y
    24a8:	0e 94 23 10 	call	0x2046	; 0x2046 <TWI_u8SendData>
    24ac:	89 81       	ldd	r24, Y+1	; 0x01
    24ae:	0e 94 23 10 	call	0x2046	; 0x2046 <TWI_u8SendData>
    24b2:	8a 81       	ldd	r24, Y+2	; 0x02
    24b4:	0e 94 23 10 	call	0x2046	; 0x2046 <TWI_u8SendData>
    24b8:	18 2f       	mov	r17, r24
    24ba:	09 2f       	mov	r16, r25
    24bc:	0e 94 78 10 	call	0x20f0	; 0x20f0 <TWI_voidStop>
    24c0:	81 2f       	mov	r24, r17
    24c2:	90 2f       	mov	r25, r16
    24c4:	df 91       	pop	r29
    24c6:	cf 91       	pop	r28
    24c8:	1f 91       	pop	r17
    24ca:	0f 91       	pop	r16
    24cc:	08 95       	ret

000024ce <ExEEPROM_voidSendStop>:
    24ce:	0e 94 78 10 	call	0x20f0	; 0x20f0 <TWI_voidStop>
    24d2:	80 e2       	ldi	r24, 0x20	; 32
    24d4:	9e e4       	ldi	r25, 0x4E	; 78
    24d6:	01 97       	sbiw	r24, 0x01	; 1
    24d8:	f1 f7       	brne	.-4      	; 0x24d6 <ExEEPROM_voidSendStop+0x8>
    24da:	08 95       	ret

000024dc <ExEEPROM_u8ReadData>:
    24dc:	9c 01       	movw	r18, r24
    24de:	86 2f       	mov	r24, r22
    24e0:	b9 01       	movw	r22, r18
    24e2:	0e 94 66 10 	call	0x20cc	; 0x20cc <TWI_u8ReadData>
    24e6:	08 95       	ret

000024e8 <ExEEPROM_voidSendData>:
    24e8:	0e 94 23 10 	call	0x2046	; 0x2046 <TWI_u8SendData>
    24ec:	08 95       	ret

000024ee <ExEEPROM_voidWriteInit>:
    24ee:	ff 92       	push	r15
    24f0:	0f 93       	push	r16
    24f2:	1f 93       	push	r17
    24f4:	08 2f       	mov	r16, r24
    24f6:	f6 2e       	mov	r15, r22
    24f8:	17 2f       	mov	r17, r23
    24fa:	0e 94 f8 0f 	call	0x1ff0	; 0x1ff0 <TWI_u8Start>
    24fe:	9c 01       	movw	r18, r24
    2500:	00 97       	sbiw	r24, 0x00	; 0
    2502:	71 f4       	brne	.+28     	; 0x2520 <ExEEPROM_voidWriteInit+0x32>
    2504:	10 65       	ori	r17, 0x50	; 80
    2506:	00 0f       	add	r16, r16
    2508:	00 0f       	add	r16, r16
    250a:	80 2f       	mov	r24, r16
    250c:	81 2b       	or	r24, r17
    250e:	0e 94 0c 10 	call	0x2018	; 0x2018 <TWI_u8SendSlaveAddWrite>
    2512:	9c 01       	movw	r18, r24
    2514:	00 97       	sbiw	r24, 0x00	; 0
    2516:	21 f4       	brne	.+8      	; 0x2520 <ExEEPROM_voidWriteInit+0x32>
    2518:	8f 2d       	mov	r24, r15
    251a:	0e 94 23 10 	call	0x2046	; 0x2046 <TWI_u8SendData>
    251e:	9c 01       	movw	r18, r24
    2520:	c9 01       	movw	r24, r18
    2522:	1f 91       	pop	r17
    2524:	0f 91       	pop	r16
    2526:	ff 90       	pop	r15
    2528:	08 95       	ret

0000252a <ExEEPROM_voidReadInit>:
    252a:	ff 92       	push	r15
    252c:	0f 93       	push	r16
    252e:	1f 93       	push	r17
    2530:	08 2f       	mov	r16, r24
    2532:	f6 2e       	mov	r15, r22
    2534:	17 2f       	mov	r17, r23
    2536:	0e 94 f8 0f 	call	0x1ff0	; 0x1ff0 <TWI_u8Start>
    253a:	9c 01       	movw	r18, r24
    253c:	00 97       	sbiw	r24, 0x00	; 0
    253e:	c9 f4       	brne	.+50     	; 0x2572 <ExEEPROM_voidReadInit+0x48>
    2540:	10 65       	ori	r17, 0x50	; 80
    2542:	00 0f       	add	r16, r16
    2544:	00 0f       	add	r16, r16
    2546:	01 2b       	or	r16, r17
    2548:	80 2f       	mov	r24, r16
    254a:	0e 94 0c 10 	call	0x2018	; 0x2018 <TWI_u8SendSlaveAddWrite>
    254e:	9c 01       	movw	r18, r24
    2550:	00 97       	sbiw	r24, 0x00	; 0
    2552:	79 f4       	brne	.+30     	; 0x2572 <ExEEPROM_voidReadInit+0x48>
    2554:	8f 2d       	mov	r24, r15
    2556:	0e 94 23 10 	call	0x2046	; 0x2046 <TWI_u8SendData>
    255a:	9c 01       	movw	r18, r24
    255c:	00 97       	sbiw	r24, 0x00	; 0
    255e:	49 f4       	brne	.+18     	; 0x2572 <ExEEPROM_voidReadInit+0x48>
    2560:	0e 94 39 10 	call	0x2072	; 0x2072 <TWI_u8SendReStart>
    2564:	9c 01       	movw	r18, r24
    2566:	00 97       	sbiw	r24, 0x00	; 0
    2568:	21 f4       	brne	.+8      	; 0x2572 <ExEEPROM_voidReadInit+0x48>
    256a:	80 2f       	mov	r24, r16
    256c:	0e 94 4e 10 	call	0x209c	; 0x209c <TWI_u8SendSlaveAddRead>
    2570:	9c 01       	movw	r18, r24
    2572:	c9 01       	movw	r24, r18
    2574:	1f 91       	pop	r17
    2576:	0f 91       	pop	r16
    2578:	ff 90       	pop	r15
    257a:	08 95       	ret

0000257c <InEEPROM_voidWriteByte>:
    257c:	58 2f       	mov	r21, r24
    257e:	49 2f       	mov	r20, r25
    2580:	8c b3       	in	r24, 0x1c	; 28
    2582:	2c b3       	in	r18, 0x1c	; 28
    2584:	90 e0       	ldi	r25, 0x00	; 0
    2586:	8d 7f       	andi	r24, 0xFD	; 253
    2588:	30 e0       	ldi	r19, 0x00	; 0
    258a:	82 17       	cp	r24, r18
    258c:	93 07       	cpc	r25, r19
    258e:	c1 f7       	brne	.-16     	; 0x2580 <InEEPROM_voidWriteByte+0x4>
    2590:	43 70       	andi	r20, 0x03	; 3
    2592:	4f bb       	out	0x1f, r20	; 31
    2594:	5e bb       	out	0x1e, r21	; 30
    2596:	e2 9a       	sbi	0x1c, 2	; 28
    2598:	e1 9a       	sbi	0x1c, 1	; 28
    259a:	08 95       	ret

0000259c <InEEPROM_voidReadByte>:
    259c:	58 2f       	mov	r21, r24
    259e:	49 2f       	mov	r20, r25
    25a0:	8c b3       	in	r24, 0x1c	; 28
    25a2:	2c b3       	in	r18, 0x1c	; 28
    25a4:	90 e0       	ldi	r25, 0x00	; 0
    25a6:	8d 7f       	andi	r24, 0xFD	; 253
    25a8:	30 e0       	ldi	r19, 0x00	; 0
    25aa:	82 17       	cp	r24, r18
    25ac:	93 07       	cpc	r25, r19
    25ae:	c1 f7       	brne	.-16     	; 0x25a0 <InEEPROM_voidReadByte+0x4>
    25b0:	43 70       	andi	r20, 0x03	; 3
    25b2:	4f bb       	out	0x1f, r20	; 31
    25b4:	5e bb       	out	0x1e, r21	; 30
    25b6:	e0 9a       	sbi	0x1c, 0	; 28
    25b8:	8d b3       	in	r24, 0x1d	; 29
    25ba:	08 95       	ret

000025bc <InEEPROM_voidSetCallBackEEPROMReady>:
    25bc:	90 93 e3 01 	sts	0x01E3, r25
    25c0:	80 93 e2 01 	sts	0x01E2, r24
    25c4:	08 95       	ret

000025c6 <__vector_17>:
    25c6:	1f 92       	push	r1
    25c8:	0f 92       	push	r0
    25ca:	0f b6       	in	r0, 0x3f	; 63
    25cc:	0f 92       	push	r0
    25ce:	11 24       	eor	r1, r1
    25d0:	2f 93       	push	r18
    25d2:	3f 93       	push	r19
    25d4:	4f 93       	push	r20
    25d6:	5f 93       	push	r21
    25d8:	6f 93       	push	r22
    25da:	7f 93       	push	r23
    25dc:	8f 93       	push	r24
    25de:	9f 93       	push	r25
    25e0:	af 93       	push	r26
    25e2:	bf 93       	push	r27
    25e4:	ef 93       	push	r30
    25e6:	ff 93       	push	r31
    25e8:	e0 91 e2 01 	lds	r30, 0x01E2
    25ec:	f0 91 e3 01 	lds	r31, 0x01E3
    25f0:	30 97       	sbiw	r30, 0x00	; 0
    25f2:	09 f0       	breq	.+2      	; 0x25f6 <__vector_17+0x30>
    25f4:	09 95       	icall
    25f6:	ff 91       	pop	r31
    25f8:	ef 91       	pop	r30
    25fa:	bf 91       	pop	r27
    25fc:	af 91       	pop	r26
    25fe:	9f 91       	pop	r25
    2600:	8f 91       	pop	r24
    2602:	7f 91       	pop	r23
    2604:	6f 91       	pop	r22
    2606:	5f 91       	pop	r21
    2608:	4f 91       	pop	r20
    260a:	3f 91       	pop	r19
    260c:	2f 91       	pop	r18
    260e:	0f 90       	pop	r0
    2610:	0f be       	out	0x3f, r0	; 63
    2612:	0f 90       	pop	r0
    2614:	1f 90       	pop	r1
    2616:	18 95       	reti

00002618 <DLCI_initialize>:
    2618:	08 95       	ret

0000261a <DLCI_terminate>:
    261a:	08 95       	ret

0000261c <DLCI_step>:
    261c:	26 ee       	ldi	r18, 0xE6	; 230
    261e:	31 e0       	ldi	r19, 0x01	; 1
    2620:	80 91 e8 01 	lds	r24, 0x01E8
    2624:	60 91 e9 01 	lds	r22, 0x01E9
    2628:	a9 01       	movw	r20, r18
    262a:	2f 5f       	subi	r18, 0xFF	; 255
    262c:	3f 4f       	sbci	r19, 0xFF	; 255
    262e:	0e 94 1a 13 	call	0x2634	; 0x2634 <DLCI_lampAlgo>
    2632:	08 95       	ret

00002634 <DLCI_lampAlgo>:
    2634:	fa 01       	movw	r30, r20
    2636:	d9 01       	movw	r26, r18
    2638:	20 e0       	ldi	r18, 0x00	; 0
    263a:	88 23       	and	r24, r24
    263c:	09 f4       	brne	.+2      	; 0x2640 <DLCI_lampAlgo+0xc>
    263e:	21 e0       	ldi	r18, 0x01	; 1
    2640:	30 e0       	ldi	r19, 0x00	; 0
    2642:	66 23       	and	r22, r22
    2644:	11 f4       	brne	.+4      	; 0x264a <DLCI_lampAlgo+0x16>
    2646:	31 e0       	ldi	r19, 0x01	; 1
    2648:	05 c0       	rjmp	.+10     	; 0x2654 <DLCI_lampAlgo+0x20>
    264a:	22 23       	and	r18, r18
    264c:	19 f4       	brne	.+6      	; 0x2654 <DLCI_lampAlgo+0x20>
    264e:	80 e0       	ldi	r24, 0x00	; 0
    2650:	90 e0       	ldi	r25, 0x00	; 0
    2652:	07 c0       	rjmp	.+14     	; 0x2662 <DLCI_lampAlgo+0x2e>
    2654:	90 e0       	ldi	r25, 0x00	; 0
    2656:	88 23       	and	r24, r24
    2658:	09 f4       	brne	.+2      	; 0x265c <DLCI_lampAlgo+0x28>
    265a:	91 e0       	ldi	r25, 0x01	; 1
    265c:	81 e0       	ldi	r24, 0x01	; 1
    265e:	98 27       	eor	r25, r24
    2660:	89 2f       	mov	r24, r25
    2662:	80 83       	st	Z, r24
    2664:	22 23       	and	r18, r18
    2666:	29 f4       	brne	.+10     	; 0x2672 <DLCI_lampAlgo+0x3e>
    2668:	33 23       	and	r19, r19
    266a:	19 f4       	brne	.+6      	; 0x2672 <DLCI_lampAlgo+0x3e>
    266c:	80 e0       	ldi	r24, 0x00	; 0
    266e:	90 e0       	ldi	r25, 0x00	; 0
    2670:	07 c0       	rjmp	.+14     	; 0x2680 <DLCI_lampAlgo+0x4c>
    2672:	90 e0       	ldi	r25, 0x00	; 0
    2674:	66 23       	and	r22, r22
    2676:	09 f4       	brne	.+2      	; 0x267a <DLCI_lampAlgo+0x46>
    2678:	91 e0       	ldi	r25, 0x01	; 1
    267a:	81 e0       	ldi	r24, 0x01	; 1
    267c:	98 27       	eor	r25, r24
    267e:	89 2f       	mov	r24, r25
    2680:	8c 93       	st	X, r24
    2682:	08 95       	ret

00002684 <__ashldi3>:
    2684:	ef 92       	push	r14
    2686:	ff 92       	push	r15
    2688:	0f 93       	push	r16
    268a:	df 93       	push	r29
    268c:	cf 93       	push	r28
    268e:	cd b7       	in	r28, 0x3d	; 61
    2690:	de b7       	in	r29, 0x3e	; 62
    2692:	60 97       	sbiw	r28, 0x10	; 16
    2694:	0f b6       	in	r0, 0x3f	; 63
    2696:	f8 94       	cli
    2698:	de bf       	out	0x3e, r29	; 62
    269a:	0f be       	out	0x3f, r0	; 63
    269c:	cd bf       	out	0x3d, r28	; 61
    269e:	a8 2f       	mov	r26, r24
    26a0:	00 23       	and	r16, r16
    26a2:	09 f4       	brne	.+2      	; 0x26a6 <__ashldi3+0x22>
    26a4:	61 c0       	rjmp	.+194    	; 0x2768 <__ashldi3+0xe4>
    26a6:	7e 01       	movw	r14, r28
    26a8:	08 94       	sec
    26aa:	e1 1c       	adc	r14, r1
    26ac:	f1 1c       	adc	r15, r1
    26ae:	88 e0       	ldi	r24, 0x08	; 8
    26b0:	f7 01       	movw	r30, r14
    26b2:	11 92       	st	Z+, r1
    26b4:	8a 95       	dec	r24
    26b6:	e9 f7       	brne	.-6      	; 0x26b2 <__ashldi3+0x2e>
    26b8:	29 83       	std	Y+1, r18	; 0x01
    26ba:	3a 83       	std	Y+2, r19	; 0x02
    26bc:	4b 83       	std	Y+3, r20	; 0x03
    26be:	5c 83       	std	Y+4, r21	; 0x04
    26c0:	6d 83       	std	Y+5, r22	; 0x05
    26c2:	7e 83       	std	Y+6, r23	; 0x06
    26c4:	af 83       	std	Y+7, r26	; 0x07
    26c6:	98 87       	std	Y+8, r25	; 0x08
    26c8:	80 e2       	ldi	r24, 0x20	; 32
    26ca:	80 1b       	sub	r24, r16
    26cc:	e8 2f       	mov	r30, r24
    26ce:	ff 27       	eor	r31, r31
    26d0:	e7 fd       	sbrc	r30, 7
    26d2:	f0 95       	com	r31
    26d4:	49 81       	ldd	r20, Y+1	; 0x01
    26d6:	5a 81       	ldd	r21, Y+2	; 0x02
    26d8:	6b 81       	ldd	r22, Y+3	; 0x03
    26da:	7c 81       	ldd	r23, Y+4	; 0x04
    26dc:	18 16       	cp	r1, r24
    26de:	84 f0       	brlt	.+32     	; 0x2700 <__ashldi3+0x7c>
    26e0:	19 86       	std	Y+9, r1	; 0x09
    26e2:	1a 86       	std	Y+10, r1	; 0x0a
    26e4:	1b 86       	std	Y+11, r1	; 0x0b
    26e6:	1c 86       	std	Y+12, r1	; 0x0c
    26e8:	88 27       	eor	r24, r24
    26ea:	99 27       	eor	r25, r25
    26ec:	8e 1b       	sub	r24, r30
    26ee:	9f 0b       	sbc	r25, r31
    26f0:	04 c0       	rjmp	.+8      	; 0x26fa <__ashldi3+0x76>
    26f2:	44 0f       	add	r20, r20
    26f4:	55 1f       	adc	r21, r21
    26f6:	66 1f       	adc	r22, r22
    26f8:	77 1f       	adc	r23, r23
    26fa:	8a 95       	dec	r24
    26fc:	d2 f7       	brpl	.-12     	; 0x26f2 <__ashldi3+0x6e>
    26fe:	28 c0       	rjmp	.+80     	; 0x2750 <__ashldi3+0xcc>
    2700:	20 2f       	mov	r18, r16
    2702:	33 27       	eor	r19, r19
    2704:	27 fd       	sbrc	r18, 7
    2706:	30 95       	com	r19
    2708:	db 01       	movw	r26, r22
    270a:	ca 01       	movw	r24, r20
    270c:	02 2e       	mov	r0, r18
    270e:	04 c0       	rjmp	.+8      	; 0x2718 <__ashldi3+0x94>
    2710:	88 0f       	add	r24, r24
    2712:	99 1f       	adc	r25, r25
    2714:	aa 1f       	adc	r26, r26
    2716:	bb 1f       	adc	r27, r27
    2718:	0a 94       	dec	r0
    271a:	d2 f7       	brpl	.-12     	; 0x2710 <__ashldi3+0x8c>
    271c:	89 87       	std	Y+9, r24	; 0x09
    271e:	9a 87       	std	Y+10, r25	; 0x0a
    2720:	ab 87       	std	Y+11, r26	; 0x0b
    2722:	bc 87       	std	Y+12, r27	; 0x0c
    2724:	04 c0       	rjmp	.+8      	; 0x272e <__ashldi3+0xaa>
    2726:	76 95       	lsr	r23
    2728:	67 95       	ror	r22
    272a:	57 95       	ror	r21
    272c:	47 95       	ror	r20
    272e:	ea 95       	dec	r30
    2730:	d2 f7       	brpl	.-12     	; 0x2726 <__ashldi3+0xa2>
    2732:	8d 81       	ldd	r24, Y+5	; 0x05
    2734:	9e 81       	ldd	r25, Y+6	; 0x06
    2736:	af 81       	ldd	r26, Y+7	; 0x07
    2738:	b8 85       	ldd	r27, Y+8	; 0x08
    273a:	04 c0       	rjmp	.+8      	; 0x2744 <__ashldi3+0xc0>
    273c:	88 0f       	add	r24, r24
    273e:	99 1f       	adc	r25, r25
    2740:	aa 1f       	adc	r26, r26
    2742:	bb 1f       	adc	r27, r27
    2744:	2a 95       	dec	r18
    2746:	d2 f7       	brpl	.-12     	; 0x273c <__ashldi3+0xb8>
    2748:	48 2b       	or	r20, r24
    274a:	59 2b       	or	r21, r25
    274c:	6a 2b       	or	r22, r26
    274e:	7b 2b       	or	r23, r27
    2750:	4d 87       	std	Y+13, r20	; 0x0d
    2752:	5e 87       	std	Y+14, r21	; 0x0e
    2754:	6f 87       	std	Y+15, r22	; 0x0f
    2756:	78 8b       	std	Y+16, r23	; 0x10
    2758:	29 85       	ldd	r18, Y+9	; 0x09
    275a:	3a 85       	ldd	r19, Y+10	; 0x0a
    275c:	4b 85       	ldd	r20, Y+11	; 0x0b
    275e:	5c 85       	ldd	r21, Y+12	; 0x0c
    2760:	6d 85       	ldd	r22, Y+13	; 0x0d
    2762:	7e 85       	ldd	r23, Y+14	; 0x0e
    2764:	af 85       	ldd	r26, Y+15	; 0x0f
    2766:	98 89       	ldd	r25, Y+16	; 0x10
    2768:	8a 2f       	mov	r24, r26
    276a:	60 96       	adiw	r28, 0x10	; 16
    276c:	0f b6       	in	r0, 0x3f	; 63
    276e:	f8 94       	cli
    2770:	de bf       	out	0x3e, r29	; 62
    2772:	0f be       	out	0x3f, r0	; 63
    2774:	cd bf       	out	0x3d, r28	; 61
    2776:	cf 91       	pop	r28
    2778:	df 91       	pop	r29
    277a:	0f 91       	pop	r16
    277c:	ff 90       	pop	r15
    277e:	ef 90       	pop	r14
    2780:	08 95       	ret

00002782 <__udivdi3>:
    2782:	ae e5       	ldi	r26, 0x5E	; 94
    2784:	b0 e0       	ldi	r27, 0x00	; 0
    2786:	e7 ec       	ldi	r30, 0xC7	; 199
    2788:	f3 e1       	ldi	r31, 0x13	; 19
    278a:	0c 94 b2 1a 	jmp	0x3564	; 0x3564 <__prologue_saves__>
    278e:	a8 e0       	ldi	r26, 0x08	; 8
    2790:	4e 01       	movw	r8, r28
    2792:	08 94       	sec
    2794:	81 1c       	adc	r8, r1
    2796:	91 1c       	adc	r9, r1
    2798:	f4 01       	movw	r30, r8
    279a:	6a 2e       	mov	r6, r26
    279c:	11 92       	st	Z+, r1
    279e:	6a 94       	dec	r6
    27a0:	e9 f7       	brne	.-6      	; 0x279c <__udivdi3+0x1a>
    27a2:	29 83       	std	Y+1, r18	; 0x01
    27a4:	3a 83       	std	Y+2, r19	; 0x02
    27a6:	4b 83       	std	Y+3, r20	; 0x03
    27a8:	5c 83       	std	Y+4, r21	; 0x04
    27aa:	6d 83       	std	Y+5, r22	; 0x05
    27ac:	7e 83       	std	Y+6, r23	; 0x06
    27ae:	8f 83       	std	Y+7, r24	; 0x07
    27b0:	98 87       	std	Y+8, r25	; 0x08
    27b2:	ce 01       	movw	r24, r28
    27b4:	09 96       	adiw	r24, 0x09	; 9
    27b6:	fc 01       	movw	r30, r24
    27b8:	11 92       	st	Z+, r1
    27ba:	aa 95       	dec	r26
    27bc:	e9 f7       	brne	.-6      	; 0x27b8 <__udivdi3+0x36>
    27be:	a9 86       	std	Y+9, r10	; 0x09
    27c0:	ba 86       	std	Y+10, r11	; 0x0a
    27c2:	cb 86       	std	Y+11, r12	; 0x0b
    27c4:	dc 86       	std	Y+12, r13	; 0x0c
    27c6:	ed 86       	std	Y+13, r14	; 0x0d
    27c8:	fe 86       	std	Y+14, r15	; 0x0e
    27ca:	0f 87       	std	Y+15, r16	; 0x0f
    27cc:	18 8b       	std	Y+16, r17	; 0x10
    27ce:	29 84       	ldd	r2, Y+9	; 0x09
    27d0:	3a 84       	ldd	r3, Y+10	; 0x0a
    27d2:	4b 84       	ldd	r4, Y+11	; 0x0b
    27d4:	5c 84       	ldd	r5, Y+12	; 0x0c
    27d6:	ed 84       	ldd	r14, Y+13	; 0x0d
    27d8:	fe 84       	ldd	r15, Y+14	; 0x0e
    27da:	0f 85       	ldd	r16, Y+15	; 0x0f
    27dc:	18 89       	ldd	r17, Y+16	; 0x10
    27de:	69 80       	ldd	r6, Y+1	; 0x01
    27e0:	7a 80       	ldd	r7, Y+2	; 0x02
    27e2:	8b 80       	ldd	r8, Y+3	; 0x03
    27e4:	9c 80       	ldd	r9, Y+4	; 0x04
    27e6:	6d a6       	std	Y+45, r6	; 0x2d
    27e8:	7e a6       	std	Y+46, r7	; 0x2e
    27ea:	8f a6       	std	Y+47, r8	; 0x2f
    27ec:	98 aa       	std	Y+48, r9	; 0x30
    27ee:	6d 80       	ldd	r6, Y+5	; 0x05
    27f0:	7e 80       	ldd	r7, Y+6	; 0x06
    27f2:	8f 80       	ldd	r8, Y+7	; 0x07
    27f4:	98 84       	ldd	r9, Y+8	; 0x08
    27f6:	e1 14       	cp	r14, r1
    27f8:	f1 04       	cpc	r15, r1
    27fa:	01 05       	cpc	r16, r1
    27fc:	11 05       	cpc	r17, r1
    27fe:	09 f0       	breq	.+2      	; 0x2802 <__udivdi3+0x80>
    2800:	b3 c3       	rjmp	.+1894   	; 0x2f68 <__udivdi3+0x7e6>
    2802:	62 14       	cp	r6, r2
    2804:	73 04       	cpc	r7, r3
    2806:	84 04       	cpc	r8, r4
    2808:	95 04       	cpc	r9, r5
    280a:	08 f0       	brcs	.+2      	; 0x280e <__udivdi3+0x8c>
    280c:	3d c1       	rjmp	.+634    	; 0x2a88 <__udivdi3+0x306>
    280e:	00 e0       	ldi	r16, 0x00	; 0
    2810:	20 16       	cp	r2, r16
    2812:	00 e0       	ldi	r16, 0x00	; 0
    2814:	30 06       	cpc	r3, r16
    2816:	01 e0       	ldi	r16, 0x01	; 1
    2818:	40 06       	cpc	r4, r16
    281a:	00 e0       	ldi	r16, 0x00	; 0
    281c:	50 06       	cpc	r5, r16
    281e:	88 f4       	brcc	.+34     	; 0x2842 <__udivdi3+0xc0>
    2820:	1f ef       	ldi	r17, 0xFF	; 255
    2822:	21 16       	cp	r2, r17
    2824:	31 04       	cpc	r3, r1
    2826:	41 04       	cpc	r4, r1
    2828:	51 04       	cpc	r5, r1
    282a:	39 f0       	breq	.+14     	; 0x283a <__udivdi3+0xb8>
    282c:	30 f0       	brcs	.+12     	; 0x283a <__udivdi3+0xb8>
    282e:	48 e0       	ldi	r20, 0x08	; 8
    2830:	e4 2e       	mov	r14, r20
    2832:	f1 2c       	mov	r15, r1
    2834:	01 2d       	mov	r16, r1
    2836:	11 2d       	mov	r17, r1
    2838:	18 c0       	rjmp	.+48     	; 0x286a <__udivdi3+0xe8>
    283a:	ee 24       	eor	r14, r14
    283c:	ff 24       	eor	r15, r15
    283e:	87 01       	movw	r16, r14
    2840:	14 c0       	rjmp	.+40     	; 0x286a <__udivdi3+0xe8>
    2842:	20 e0       	ldi	r18, 0x00	; 0
    2844:	22 16       	cp	r2, r18
    2846:	20 e0       	ldi	r18, 0x00	; 0
    2848:	32 06       	cpc	r3, r18
    284a:	20 e0       	ldi	r18, 0x00	; 0
    284c:	42 06       	cpc	r4, r18
    284e:	21 e0       	ldi	r18, 0x01	; 1
    2850:	52 06       	cpc	r5, r18
    2852:	30 f0       	brcs	.+12     	; 0x2860 <__udivdi3+0xde>
    2854:	38 e1       	ldi	r19, 0x18	; 24
    2856:	e3 2e       	mov	r14, r19
    2858:	f1 2c       	mov	r15, r1
    285a:	01 2d       	mov	r16, r1
    285c:	11 2d       	mov	r17, r1
    285e:	05 c0       	rjmp	.+10     	; 0x286a <__udivdi3+0xe8>
    2860:	20 e1       	ldi	r18, 0x10	; 16
    2862:	e2 2e       	mov	r14, r18
    2864:	f1 2c       	mov	r15, r1
    2866:	01 2d       	mov	r16, r1
    2868:	11 2d       	mov	r17, r1
    286a:	d2 01       	movw	r26, r4
    286c:	c1 01       	movw	r24, r2
    286e:	0e 2c       	mov	r0, r14
    2870:	04 c0       	rjmp	.+8      	; 0x287a <__udivdi3+0xf8>
    2872:	b6 95       	lsr	r27
    2874:	a7 95       	ror	r26
    2876:	97 95       	ror	r25
    2878:	87 95       	ror	r24
    287a:	0a 94       	dec	r0
    287c:	d2 f7       	brpl	.-12     	; 0x2872 <__udivdi3+0xf0>
    287e:	8f 55       	subi	r24, 0x5F	; 95
    2880:	9f 4f       	sbci	r25, 0xFF	; 255
    2882:	dc 01       	movw	r26, r24
    2884:	2c 91       	ld	r18, X
    2886:	80 e2       	ldi	r24, 0x20	; 32
    2888:	90 e0       	ldi	r25, 0x00	; 0
    288a:	a0 e0       	ldi	r26, 0x00	; 0
    288c:	b0 e0       	ldi	r27, 0x00	; 0
    288e:	8e 19       	sub	r24, r14
    2890:	9f 09       	sbc	r25, r15
    2892:	a0 0b       	sbc	r26, r16
    2894:	b1 0b       	sbc	r27, r17
    2896:	7c 01       	movw	r14, r24
    2898:	8d 01       	movw	r16, r26
    289a:	e2 1a       	sub	r14, r18
    289c:	f1 08       	sbc	r15, r1
    289e:	01 09       	sbc	r16, r1
    28a0:	11 09       	sbc	r17, r1
    28a2:	e1 14       	cp	r14, r1
    28a4:	f1 04       	cpc	r15, r1
    28a6:	01 05       	cpc	r16, r1
    28a8:	11 05       	cpc	r17, r1
    28aa:	a1 f1       	breq	.+104    	; 0x2914 <__udivdi3+0x192>
    28ac:	0e 2c       	mov	r0, r14
    28ae:	04 c0       	rjmp	.+8      	; 0x28b8 <__udivdi3+0x136>
    28b0:	22 0c       	add	r2, r2
    28b2:	33 1c       	adc	r3, r3
    28b4:	44 1c       	adc	r4, r4
    28b6:	55 1c       	adc	r5, r5
    28b8:	0a 94       	dec	r0
    28ba:	d2 f7       	brpl	.-12     	; 0x28b0 <__udivdi3+0x12e>
    28bc:	a4 01       	movw	r20, r8
    28be:	93 01       	movw	r18, r6
    28c0:	0e 2c       	mov	r0, r14
    28c2:	04 c0       	rjmp	.+8      	; 0x28cc <__udivdi3+0x14a>
    28c4:	22 0f       	add	r18, r18
    28c6:	33 1f       	adc	r19, r19
    28c8:	44 1f       	adc	r20, r20
    28ca:	55 1f       	adc	r21, r21
    28cc:	0a 94       	dec	r0
    28ce:	d2 f7       	brpl	.-12     	; 0x28c4 <__udivdi3+0x142>
    28d0:	80 e2       	ldi	r24, 0x20	; 32
    28d2:	90 e0       	ldi	r25, 0x00	; 0
    28d4:	8e 19       	sub	r24, r14
    28d6:	9f 09       	sbc	r25, r15
    28d8:	6d a4       	ldd	r6, Y+45	; 0x2d
    28da:	7e a4       	ldd	r7, Y+46	; 0x2e
    28dc:	8f a4       	ldd	r8, Y+47	; 0x2f
    28de:	98 a8       	ldd	r9, Y+48	; 0x30
    28e0:	04 c0       	rjmp	.+8      	; 0x28ea <__udivdi3+0x168>
    28e2:	96 94       	lsr	r9
    28e4:	87 94       	ror	r8
    28e6:	77 94       	ror	r7
    28e8:	67 94       	ror	r6
    28ea:	8a 95       	dec	r24
    28ec:	d2 f7       	brpl	.-12     	; 0x28e2 <__udivdi3+0x160>
    28ee:	62 2a       	or	r6, r18
    28f0:	73 2a       	or	r7, r19
    28f2:	84 2a       	or	r8, r20
    28f4:	95 2a       	or	r9, r21
    28f6:	ad a4       	ldd	r10, Y+45	; 0x2d
    28f8:	be a4       	ldd	r11, Y+46	; 0x2e
    28fa:	cf a4       	ldd	r12, Y+47	; 0x2f
    28fc:	d8 a8       	ldd	r13, Y+48	; 0x30
    28fe:	04 c0       	rjmp	.+8      	; 0x2908 <__udivdi3+0x186>
    2900:	aa 0c       	add	r10, r10
    2902:	bb 1c       	adc	r11, r11
    2904:	cc 1c       	adc	r12, r12
    2906:	dd 1c       	adc	r13, r13
    2908:	ea 94       	dec	r14
    290a:	d2 f7       	brpl	.-12     	; 0x2900 <__udivdi3+0x17e>
    290c:	ad a6       	std	Y+45, r10	; 0x2d
    290e:	be a6       	std	Y+46, r11	; 0x2e
    2910:	cf a6       	std	Y+47, r12	; 0x2f
    2912:	d8 aa       	std	Y+48, r13	; 0x30
    2914:	62 01       	movw	r12, r4
    2916:	ee 24       	eor	r14, r14
    2918:	ff 24       	eor	r15, r15
    291a:	cd aa       	std	Y+53, r12	; 0x35
    291c:	de aa       	std	Y+54, r13	; 0x36
    291e:	ef aa       	std	Y+55, r14	; 0x37
    2920:	f8 ae       	std	Y+56, r15	; 0x38
    2922:	92 01       	movw	r18, r4
    2924:	81 01       	movw	r16, r2
    2926:	20 70       	andi	r18, 0x00	; 0
    2928:	30 70       	andi	r19, 0x00	; 0
    292a:	09 af       	std	Y+57, r16	; 0x39
    292c:	1a af       	std	Y+58, r17	; 0x3a
    292e:	2b af       	std	Y+59, r18	; 0x3b
    2930:	3c af       	std	Y+60, r19	; 0x3c
    2932:	c4 01       	movw	r24, r8
    2934:	b3 01       	movw	r22, r6
    2936:	a7 01       	movw	r20, r14
    2938:	96 01       	movw	r18, r12
    293a:	0e 94 75 1a 	call	0x34ea	; 0x34ea <__udivmodsi4>
    293e:	7b 01       	movw	r14, r22
    2940:	8c 01       	movw	r16, r24
    2942:	c4 01       	movw	r24, r8
    2944:	b3 01       	movw	r22, r6
    2946:	2d a9       	ldd	r18, Y+53	; 0x35
    2948:	3e a9       	ldd	r19, Y+54	; 0x36
    294a:	4f a9       	ldd	r20, Y+55	; 0x37
    294c:	58 ad       	ldd	r21, Y+56	; 0x38
    294e:	0e 94 75 1a 	call	0x34ea	; 0x34ea <__udivmodsi4>
    2952:	c9 01       	movw	r24, r18
    2954:	da 01       	movw	r26, r20
    2956:	3c 01       	movw	r6, r24
    2958:	4d 01       	movw	r8, r26
    295a:	c4 01       	movw	r24, r8
    295c:	b3 01       	movw	r22, r6
    295e:	29 ad       	ldd	r18, Y+57	; 0x39
    2960:	3a ad       	ldd	r19, Y+58	; 0x3a
    2962:	4b ad       	ldd	r20, Y+59	; 0x3b
    2964:	5c ad       	ldd	r21, Y+60	; 0x3c
    2966:	0e 94 36 1a 	call	0x346c	; 0x346c <__mulsi3>
    296a:	9b 01       	movw	r18, r22
    296c:	ac 01       	movw	r20, r24
    296e:	87 01       	movw	r16, r14
    2970:	ff 24       	eor	r15, r15
    2972:	ee 24       	eor	r14, r14
    2974:	ad a4       	ldd	r10, Y+45	; 0x2d
    2976:	be a4       	ldd	r11, Y+46	; 0x2e
    2978:	cf a4       	ldd	r12, Y+47	; 0x2f
    297a:	d8 a8       	ldd	r13, Y+48	; 0x30
    297c:	c6 01       	movw	r24, r12
    297e:	aa 27       	eor	r26, r26
    2980:	bb 27       	eor	r27, r27
    2982:	57 01       	movw	r10, r14
    2984:	68 01       	movw	r12, r16
    2986:	a8 2a       	or	r10, r24
    2988:	b9 2a       	or	r11, r25
    298a:	ca 2a       	or	r12, r26
    298c:	db 2a       	or	r13, r27
    298e:	a2 16       	cp	r10, r18
    2990:	b3 06       	cpc	r11, r19
    2992:	c4 06       	cpc	r12, r20
    2994:	d5 06       	cpc	r13, r21
    2996:	e0 f4       	brcc	.+56     	; 0x29d0 <__udivdi3+0x24e>
    2998:	08 94       	sec
    299a:	61 08       	sbc	r6, r1
    299c:	71 08       	sbc	r7, r1
    299e:	81 08       	sbc	r8, r1
    29a0:	91 08       	sbc	r9, r1
    29a2:	a2 0c       	add	r10, r2
    29a4:	b3 1c       	adc	r11, r3
    29a6:	c4 1c       	adc	r12, r4
    29a8:	d5 1c       	adc	r13, r5
    29aa:	a2 14       	cp	r10, r2
    29ac:	b3 04       	cpc	r11, r3
    29ae:	c4 04       	cpc	r12, r4
    29b0:	d5 04       	cpc	r13, r5
    29b2:	70 f0       	brcs	.+28     	; 0x29d0 <__udivdi3+0x24e>
    29b4:	a2 16       	cp	r10, r18
    29b6:	b3 06       	cpc	r11, r19
    29b8:	c4 06       	cpc	r12, r20
    29ba:	d5 06       	cpc	r13, r21
    29bc:	48 f4       	brcc	.+18     	; 0x29d0 <__udivdi3+0x24e>
    29be:	08 94       	sec
    29c0:	61 08       	sbc	r6, r1
    29c2:	71 08       	sbc	r7, r1
    29c4:	81 08       	sbc	r8, r1
    29c6:	91 08       	sbc	r9, r1
    29c8:	a2 0c       	add	r10, r2
    29ca:	b3 1c       	adc	r11, r3
    29cc:	c4 1c       	adc	r12, r4
    29ce:	d5 1c       	adc	r13, r5
    29d0:	a2 1a       	sub	r10, r18
    29d2:	b3 0a       	sbc	r11, r19
    29d4:	c4 0a       	sbc	r12, r20
    29d6:	d5 0a       	sbc	r13, r21
    29d8:	c6 01       	movw	r24, r12
    29da:	b5 01       	movw	r22, r10
    29dc:	2d a9       	ldd	r18, Y+53	; 0x35
    29de:	3e a9       	ldd	r19, Y+54	; 0x36
    29e0:	4f a9       	ldd	r20, Y+55	; 0x37
    29e2:	58 ad       	ldd	r21, Y+56	; 0x38
    29e4:	0e 94 75 1a 	call	0x34ea	; 0x34ea <__udivmodsi4>
    29e8:	7b 01       	movw	r14, r22
    29ea:	8c 01       	movw	r16, r24
    29ec:	c6 01       	movw	r24, r12
    29ee:	b5 01       	movw	r22, r10
    29f0:	2d a9       	ldd	r18, Y+53	; 0x35
    29f2:	3e a9       	ldd	r19, Y+54	; 0x36
    29f4:	4f a9       	ldd	r20, Y+55	; 0x37
    29f6:	58 ad       	ldd	r21, Y+56	; 0x38
    29f8:	0e 94 75 1a 	call	0x34ea	; 0x34ea <__udivmodsi4>
    29fc:	c9 01       	movw	r24, r18
    29fe:	da 01       	movw	r26, r20
    2a00:	5c 01       	movw	r10, r24
    2a02:	6d 01       	movw	r12, r26
    2a04:	c6 01       	movw	r24, r12
    2a06:	b5 01       	movw	r22, r10
    2a08:	29 ad       	ldd	r18, Y+57	; 0x39
    2a0a:	3a ad       	ldd	r19, Y+58	; 0x3a
    2a0c:	4b ad       	ldd	r20, Y+59	; 0x3b
    2a0e:	5c ad       	ldd	r21, Y+60	; 0x3c
    2a10:	0e 94 36 1a 	call	0x346c	; 0x346c <__mulsi3>
    2a14:	9b 01       	movw	r18, r22
    2a16:	ac 01       	movw	r20, r24
    2a18:	87 01       	movw	r16, r14
    2a1a:	ff 24       	eor	r15, r15
    2a1c:	ee 24       	eor	r14, r14
    2a1e:	8d a5       	ldd	r24, Y+45	; 0x2d
    2a20:	9e a5       	ldd	r25, Y+46	; 0x2e
    2a22:	af a5       	ldd	r26, Y+47	; 0x2f
    2a24:	b8 a9       	ldd	r27, Y+48	; 0x30
    2a26:	a0 70       	andi	r26, 0x00	; 0
    2a28:	b0 70       	andi	r27, 0x00	; 0
    2a2a:	e8 2a       	or	r14, r24
    2a2c:	f9 2a       	or	r15, r25
    2a2e:	0a 2b       	or	r16, r26
    2a30:	1b 2b       	or	r17, r27
    2a32:	e2 16       	cp	r14, r18
    2a34:	f3 06       	cpc	r15, r19
    2a36:	04 07       	cpc	r16, r20
    2a38:	15 07       	cpc	r17, r21
    2a3a:	c0 f4       	brcc	.+48     	; 0x2a6c <__udivdi3+0x2ea>
    2a3c:	08 94       	sec
    2a3e:	a1 08       	sbc	r10, r1
    2a40:	b1 08       	sbc	r11, r1
    2a42:	c1 08       	sbc	r12, r1
    2a44:	d1 08       	sbc	r13, r1
    2a46:	e2 0c       	add	r14, r2
    2a48:	f3 1c       	adc	r15, r3
    2a4a:	04 1d       	adc	r16, r4
    2a4c:	15 1d       	adc	r17, r5
    2a4e:	e2 14       	cp	r14, r2
    2a50:	f3 04       	cpc	r15, r3
    2a52:	04 05       	cpc	r16, r4
    2a54:	15 05       	cpc	r17, r5
    2a56:	50 f0       	brcs	.+20     	; 0x2a6c <__udivdi3+0x2ea>
    2a58:	e2 16       	cp	r14, r18
    2a5a:	f3 06       	cpc	r15, r19
    2a5c:	04 07       	cpc	r16, r20
    2a5e:	15 07       	cpc	r17, r21
    2a60:	28 f4       	brcc	.+10     	; 0x2a6c <__udivdi3+0x2ea>
    2a62:	08 94       	sec
    2a64:	a1 08       	sbc	r10, r1
    2a66:	b1 08       	sbc	r11, r1
    2a68:	c1 08       	sbc	r12, r1
    2a6a:	d1 08       	sbc	r13, r1
    2a6c:	d3 01       	movw	r26, r6
    2a6e:	99 27       	eor	r25, r25
    2a70:	88 27       	eor	r24, r24
    2a72:	86 01       	movw	r16, r12
    2a74:	75 01       	movw	r14, r10
    2a76:	e8 2a       	or	r14, r24
    2a78:	f9 2a       	or	r15, r25
    2a7a:	0a 2b       	or	r16, r26
    2a7c:	1b 2b       	or	r17, r27
    2a7e:	e9 aa       	std	Y+49, r14	; 0x31
    2a80:	fa aa       	std	Y+50, r15	; 0x32
    2a82:	0b ab       	std	Y+51, r16	; 0x33
    2a84:	1c ab       	std	Y+52, r17	; 0x34
    2a86:	cf c4       	rjmp	.+2462   	; 0x3426 <__udivdi3+0xca4>
    2a88:	21 14       	cp	r2, r1
    2a8a:	31 04       	cpc	r3, r1
    2a8c:	41 04       	cpc	r4, r1
    2a8e:	51 04       	cpc	r5, r1
    2a90:	71 f4       	brne	.+28     	; 0x2aae <__udivdi3+0x32c>
    2a92:	61 e0       	ldi	r22, 0x01	; 1
    2a94:	70 e0       	ldi	r23, 0x00	; 0
    2a96:	80 e0       	ldi	r24, 0x00	; 0
    2a98:	90 e0       	ldi	r25, 0x00	; 0
    2a9a:	20 e0       	ldi	r18, 0x00	; 0
    2a9c:	30 e0       	ldi	r19, 0x00	; 0
    2a9e:	40 e0       	ldi	r20, 0x00	; 0
    2aa0:	50 e0       	ldi	r21, 0x00	; 0
    2aa2:	0e 94 75 1a 	call	0x34ea	; 0x34ea <__udivmodsi4>
    2aa6:	c9 01       	movw	r24, r18
    2aa8:	da 01       	movw	r26, r20
    2aaa:	1c 01       	movw	r2, r24
    2aac:	2d 01       	movw	r4, r26
    2aae:	00 e0       	ldi	r16, 0x00	; 0
    2ab0:	20 16       	cp	r2, r16
    2ab2:	00 e0       	ldi	r16, 0x00	; 0
    2ab4:	30 06       	cpc	r3, r16
    2ab6:	01 e0       	ldi	r16, 0x01	; 1
    2ab8:	40 06       	cpc	r4, r16
    2aba:	00 e0       	ldi	r16, 0x00	; 0
    2abc:	50 06       	cpc	r5, r16
    2abe:	88 f4       	brcc	.+34     	; 0x2ae2 <__udivdi3+0x360>
    2ac0:	1f ef       	ldi	r17, 0xFF	; 255
    2ac2:	21 16       	cp	r2, r17
    2ac4:	31 04       	cpc	r3, r1
    2ac6:	41 04       	cpc	r4, r1
    2ac8:	51 04       	cpc	r5, r1
    2aca:	31 f0       	breq	.+12     	; 0x2ad8 <__udivdi3+0x356>
    2acc:	28 f0       	brcs	.+10     	; 0x2ad8 <__udivdi3+0x356>
    2ace:	48 e0       	ldi	r20, 0x08	; 8
    2ad0:	50 e0       	ldi	r21, 0x00	; 0
    2ad2:	60 e0       	ldi	r22, 0x00	; 0
    2ad4:	70 e0       	ldi	r23, 0x00	; 0
    2ad6:	17 c0       	rjmp	.+46     	; 0x2b06 <__udivdi3+0x384>
    2ad8:	40 e0       	ldi	r20, 0x00	; 0
    2ada:	50 e0       	ldi	r21, 0x00	; 0
    2adc:	60 e0       	ldi	r22, 0x00	; 0
    2ade:	70 e0       	ldi	r23, 0x00	; 0
    2ae0:	12 c0       	rjmp	.+36     	; 0x2b06 <__udivdi3+0x384>
    2ae2:	20 e0       	ldi	r18, 0x00	; 0
    2ae4:	22 16       	cp	r2, r18
    2ae6:	20 e0       	ldi	r18, 0x00	; 0
    2ae8:	32 06       	cpc	r3, r18
    2aea:	20 e0       	ldi	r18, 0x00	; 0
    2aec:	42 06       	cpc	r4, r18
    2aee:	21 e0       	ldi	r18, 0x01	; 1
    2af0:	52 06       	cpc	r5, r18
    2af2:	28 f0       	brcs	.+10     	; 0x2afe <__udivdi3+0x37c>
    2af4:	48 e1       	ldi	r20, 0x18	; 24
    2af6:	50 e0       	ldi	r21, 0x00	; 0
    2af8:	60 e0       	ldi	r22, 0x00	; 0
    2afa:	70 e0       	ldi	r23, 0x00	; 0
    2afc:	04 c0       	rjmp	.+8      	; 0x2b06 <__udivdi3+0x384>
    2afe:	40 e1       	ldi	r20, 0x10	; 16
    2b00:	50 e0       	ldi	r21, 0x00	; 0
    2b02:	60 e0       	ldi	r22, 0x00	; 0
    2b04:	70 e0       	ldi	r23, 0x00	; 0
    2b06:	d2 01       	movw	r26, r4
    2b08:	c1 01       	movw	r24, r2
    2b0a:	04 2e       	mov	r0, r20
    2b0c:	04 c0       	rjmp	.+8      	; 0x2b16 <__udivdi3+0x394>
    2b0e:	b6 95       	lsr	r27
    2b10:	a7 95       	ror	r26
    2b12:	97 95       	ror	r25
    2b14:	87 95       	ror	r24
    2b16:	0a 94       	dec	r0
    2b18:	d2 f7       	brpl	.-12     	; 0x2b0e <__udivdi3+0x38c>
    2b1a:	8f 55       	subi	r24, 0x5F	; 95
    2b1c:	9f 4f       	sbci	r25, 0xFF	; 255
    2b1e:	dc 01       	movw	r26, r24
    2b20:	2c 91       	ld	r18, X
    2b22:	e0 e2       	ldi	r30, 0x20	; 32
    2b24:	ee 2e       	mov	r14, r30
    2b26:	f1 2c       	mov	r15, r1
    2b28:	01 2d       	mov	r16, r1
    2b2a:	11 2d       	mov	r17, r1
    2b2c:	d8 01       	movw	r26, r16
    2b2e:	c7 01       	movw	r24, r14
    2b30:	84 1b       	sub	r24, r20
    2b32:	95 0b       	sbc	r25, r21
    2b34:	a6 0b       	sbc	r26, r22
    2b36:	b7 0b       	sbc	r27, r23
    2b38:	82 1b       	sub	r24, r18
    2b3a:	91 09       	sbc	r25, r1
    2b3c:	a1 09       	sbc	r26, r1
    2b3e:	b1 09       	sbc	r27, r1
    2b40:	00 97       	sbiw	r24, 0x00	; 0
    2b42:	a1 05       	cpc	r26, r1
    2b44:	b1 05       	cpc	r27, r1
    2b46:	61 f4       	brne	.+24     	; 0x2b60 <__udivdi3+0x3de>
    2b48:	64 01       	movw	r12, r8
    2b4a:	53 01       	movw	r10, r6
    2b4c:	a2 18       	sub	r10, r2
    2b4e:	b3 08       	sbc	r11, r3
    2b50:	c4 08       	sbc	r12, r4
    2b52:	d5 08       	sbc	r13, r5
    2b54:	31 e0       	ldi	r19, 0x01	; 1
    2b56:	63 2e       	mov	r6, r19
    2b58:	71 2c       	mov	r7, r1
    2b5a:	81 2c       	mov	r8, r1
    2b5c:	91 2c       	mov	r9, r1
    2b5e:	1e c1       	rjmp	.+572    	; 0x2d9c <__udivdi3+0x61a>
    2b60:	6f 96       	adiw	r28, 0x1f	; 31
    2b62:	8f af       	std	Y+63, r24	; 0x3f
    2b64:	6f 97       	sbiw	r28, 0x1f	; 31
    2b66:	08 2e       	mov	r0, r24
    2b68:	04 c0       	rjmp	.+8      	; 0x2b72 <__udivdi3+0x3f0>
    2b6a:	22 0c       	add	r2, r2
    2b6c:	33 1c       	adc	r3, r3
    2b6e:	44 1c       	adc	r4, r4
    2b70:	55 1c       	adc	r5, r5
    2b72:	0a 94       	dec	r0
    2b74:	d2 f7       	brpl	.-12     	; 0x2b6a <__udivdi3+0x3e8>
    2b76:	ee 2d       	mov	r30, r14
    2b78:	e8 1b       	sub	r30, r24
    2b7a:	64 01       	movw	r12, r8
    2b7c:	53 01       	movw	r10, r6
    2b7e:	0e 2e       	mov	r0, r30
    2b80:	04 c0       	rjmp	.+8      	; 0x2b8a <__udivdi3+0x408>
    2b82:	d6 94       	lsr	r13
    2b84:	c7 94       	ror	r12
    2b86:	b7 94       	ror	r11
    2b88:	a7 94       	ror	r10
    2b8a:	0a 94       	dec	r0
    2b8c:	d2 f7       	brpl	.-12     	; 0x2b82 <__udivdi3+0x400>
    2b8e:	a4 01       	movw	r20, r8
    2b90:	93 01       	movw	r18, r6
    2b92:	6f 96       	adiw	r28, 0x1f	; 31
    2b94:	0f ac       	ldd	r0, Y+63	; 0x3f
    2b96:	6f 97       	sbiw	r28, 0x1f	; 31
    2b98:	04 c0       	rjmp	.+8      	; 0x2ba2 <__udivdi3+0x420>
    2b9a:	22 0f       	add	r18, r18
    2b9c:	33 1f       	adc	r19, r19
    2b9e:	44 1f       	adc	r20, r20
    2ba0:	55 1f       	adc	r21, r21
    2ba2:	0a 94       	dec	r0
    2ba4:	d2 f7       	brpl	.-12     	; 0x2b9a <__udivdi3+0x418>
    2ba6:	6d a4       	ldd	r6, Y+45	; 0x2d
    2ba8:	7e a4       	ldd	r7, Y+46	; 0x2e
    2baa:	8f a4       	ldd	r8, Y+47	; 0x2f
    2bac:	98 a8       	ldd	r9, Y+48	; 0x30
    2bae:	0e 2e       	mov	r0, r30
    2bb0:	04 c0       	rjmp	.+8      	; 0x2bba <__udivdi3+0x438>
    2bb2:	96 94       	lsr	r9
    2bb4:	87 94       	ror	r8
    2bb6:	77 94       	ror	r7
    2bb8:	67 94       	ror	r6
    2bba:	0a 94       	dec	r0
    2bbc:	d2 f7       	brpl	.-12     	; 0x2bb2 <__udivdi3+0x430>
    2bbe:	84 01       	movw	r16, r8
    2bc0:	73 01       	movw	r14, r6
    2bc2:	e2 2a       	or	r14, r18
    2bc4:	f3 2a       	or	r15, r19
    2bc6:	04 2b       	or	r16, r20
    2bc8:	15 2b       	or	r17, r21
    2bca:	e9 a6       	std	Y+41, r14	; 0x29
    2bcc:	fa a6       	std	Y+42, r15	; 0x2a
    2bce:	0b a7       	std	Y+43, r16	; 0x2b
    2bd0:	1c a7       	std	Y+44, r17	; 0x2c
    2bd2:	32 01       	movw	r6, r4
    2bd4:	88 24       	eor	r8, r8
    2bd6:	99 24       	eor	r9, r9
    2bd8:	92 01       	movw	r18, r4
    2bda:	81 01       	movw	r16, r2
    2bdc:	20 70       	andi	r18, 0x00	; 0
    2bde:	30 70       	andi	r19, 0x00	; 0
    2be0:	21 96       	adiw	r28, 0x01	; 1
    2be2:	0c af       	std	Y+60, r16	; 0x3c
    2be4:	1d af       	std	Y+61, r17	; 0x3d
    2be6:	2e af       	std	Y+62, r18	; 0x3e
    2be8:	3f af       	std	Y+63, r19	; 0x3f
    2bea:	21 97       	sbiw	r28, 0x01	; 1
    2bec:	c6 01       	movw	r24, r12
    2bee:	b5 01       	movw	r22, r10
    2bf0:	a4 01       	movw	r20, r8
    2bf2:	93 01       	movw	r18, r6
    2bf4:	0e 94 75 1a 	call	0x34ea	; 0x34ea <__udivmodsi4>
    2bf8:	7b 01       	movw	r14, r22
    2bfa:	8c 01       	movw	r16, r24
    2bfc:	c6 01       	movw	r24, r12
    2bfe:	b5 01       	movw	r22, r10
    2c00:	a4 01       	movw	r20, r8
    2c02:	93 01       	movw	r18, r6
    2c04:	0e 94 75 1a 	call	0x34ea	; 0x34ea <__udivmodsi4>
    2c08:	c9 01       	movw	r24, r18
    2c0a:	da 01       	movw	r26, r20
    2c0c:	25 96       	adiw	r28, 0x05	; 5
    2c0e:	8c af       	std	Y+60, r24	; 0x3c
    2c10:	9d af       	std	Y+61, r25	; 0x3d
    2c12:	ae af       	std	Y+62, r26	; 0x3e
    2c14:	bf af       	std	Y+63, r27	; 0x3f
    2c16:	25 97       	sbiw	r28, 0x05	; 5
    2c18:	bc 01       	movw	r22, r24
    2c1a:	cd 01       	movw	r24, r26
    2c1c:	21 96       	adiw	r28, 0x01	; 1
    2c1e:	2c ad       	ldd	r18, Y+60	; 0x3c
    2c20:	3d ad       	ldd	r19, Y+61	; 0x3d
    2c22:	4e ad       	ldd	r20, Y+62	; 0x3e
    2c24:	5f ad       	ldd	r21, Y+63	; 0x3f
    2c26:	21 97       	sbiw	r28, 0x01	; 1
    2c28:	0e 94 36 1a 	call	0x346c	; 0x346c <__mulsi3>
    2c2c:	9b 01       	movw	r18, r22
    2c2e:	ac 01       	movw	r20, r24
    2c30:	87 01       	movw	r16, r14
    2c32:	ff 24       	eor	r15, r15
    2c34:	ee 24       	eor	r14, r14
    2c36:	a9 a4       	ldd	r10, Y+41	; 0x29
    2c38:	ba a4       	ldd	r11, Y+42	; 0x2a
    2c3a:	cb a4       	ldd	r12, Y+43	; 0x2b
    2c3c:	dc a4       	ldd	r13, Y+44	; 0x2c
    2c3e:	c6 01       	movw	r24, r12
    2c40:	aa 27       	eor	r26, r26
    2c42:	bb 27       	eor	r27, r27
    2c44:	5c 01       	movw	r10, r24
    2c46:	6d 01       	movw	r12, r26
    2c48:	ae 28       	or	r10, r14
    2c4a:	bf 28       	or	r11, r15
    2c4c:	c0 2a       	or	r12, r16
    2c4e:	d1 2a       	or	r13, r17
    2c50:	a2 16       	cp	r10, r18
    2c52:	b3 06       	cpc	r11, r19
    2c54:	c4 06       	cpc	r12, r20
    2c56:	d5 06       	cpc	r13, r21
    2c58:	60 f5       	brcc	.+88     	; 0x2cb2 <__udivdi3+0x530>
    2c5a:	25 96       	adiw	r28, 0x05	; 5
    2c5c:	6c ad       	ldd	r22, Y+60	; 0x3c
    2c5e:	7d ad       	ldd	r23, Y+61	; 0x3d
    2c60:	8e ad       	ldd	r24, Y+62	; 0x3e
    2c62:	9f ad       	ldd	r25, Y+63	; 0x3f
    2c64:	25 97       	sbiw	r28, 0x05	; 5
    2c66:	61 50       	subi	r22, 0x01	; 1
    2c68:	70 40       	sbci	r23, 0x00	; 0
    2c6a:	80 40       	sbci	r24, 0x00	; 0
    2c6c:	90 40       	sbci	r25, 0x00	; 0
    2c6e:	25 96       	adiw	r28, 0x05	; 5
    2c70:	6c af       	std	Y+60, r22	; 0x3c
    2c72:	7d af       	std	Y+61, r23	; 0x3d
    2c74:	8e af       	std	Y+62, r24	; 0x3e
    2c76:	9f af       	std	Y+63, r25	; 0x3f
    2c78:	25 97       	sbiw	r28, 0x05	; 5
    2c7a:	a2 0c       	add	r10, r2
    2c7c:	b3 1c       	adc	r11, r3
    2c7e:	c4 1c       	adc	r12, r4
    2c80:	d5 1c       	adc	r13, r5
    2c82:	a2 14       	cp	r10, r2
    2c84:	b3 04       	cpc	r11, r3
    2c86:	c4 04       	cpc	r12, r4
    2c88:	d5 04       	cpc	r13, r5
    2c8a:	98 f0       	brcs	.+38     	; 0x2cb2 <__udivdi3+0x530>
    2c8c:	a2 16       	cp	r10, r18
    2c8e:	b3 06       	cpc	r11, r19
    2c90:	c4 06       	cpc	r12, r20
    2c92:	d5 06       	cpc	r13, r21
    2c94:	70 f4       	brcc	.+28     	; 0x2cb2 <__udivdi3+0x530>
    2c96:	61 50       	subi	r22, 0x01	; 1
    2c98:	70 40       	sbci	r23, 0x00	; 0
    2c9a:	80 40       	sbci	r24, 0x00	; 0
    2c9c:	90 40       	sbci	r25, 0x00	; 0
    2c9e:	25 96       	adiw	r28, 0x05	; 5
    2ca0:	6c af       	std	Y+60, r22	; 0x3c
    2ca2:	7d af       	std	Y+61, r23	; 0x3d
    2ca4:	8e af       	std	Y+62, r24	; 0x3e
    2ca6:	9f af       	std	Y+63, r25	; 0x3f
    2ca8:	25 97       	sbiw	r28, 0x05	; 5
    2caa:	a2 0c       	add	r10, r2
    2cac:	b3 1c       	adc	r11, r3
    2cae:	c4 1c       	adc	r12, r4
    2cb0:	d5 1c       	adc	r13, r5
    2cb2:	a2 1a       	sub	r10, r18
    2cb4:	b3 0a       	sbc	r11, r19
    2cb6:	c4 0a       	sbc	r12, r20
    2cb8:	d5 0a       	sbc	r13, r21
    2cba:	c6 01       	movw	r24, r12
    2cbc:	b5 01       	movw	r22, r10
    2cbe:	a4 01       	movw	r20, r8
    2cc0:	93 01       	movw	r18, r6
    2cc2:	0e 94 75 1a 	call	0x34ea	; 0x34ea <__udivmodsi4>
    2cc6:	7b 01       	movw	r14, r22
    2cc8:	8c 01       	movw	r16, r24
    2cca:	c6 01       	movw	r24, r12
    2ccc:	b5 01       	movw	r22, r10
    2cce:	a4 01       	movw	r20, r8
    2cd0:	93 01       	movw	r18, r6
    2cd2:	0e 94 75 1a 	call	0x34ea	; 0x34ea <__udivmodsi4>
    2cd6:	c9 01       	movw	r24, r18
    2cd8:	da 01       	movw	r26, r20
    2cda:	3c 01       	movw	r6, r24
    2cdc:	4d 01       	movw	r8, r26
    2cde:	c4 01       	movw	r24, r8
    2ce0:	b3 01       	movw	r22, r6
    2ce2:	21 96       	adiw	r28, 0x01	; 1
    2ce4:	2c ad       	ldd	r18, Y+60	; 0x3c
    2ce6:	3d ad       	ldd	r19, Y+61	; 0x3d
    2ce8:	4e ad       	ldd	r20, Y+62	; 0x3e
    2cea:	5f ad       	ldd	r21, Y+63	; 0x3f
    2cec:	21 97       	sbiw	r28, 0x01	; 1
    2cee:	0e 94 36 1a 	call	0x346c	; 0x346c <__mulsi3>
    2cf2:	9b 01       	movw	r18, r22
    2cf4:	ac 01       	movw	r20, r24
    2cf6:	87 01       	movw	r16, r14
    2cf8:	ff 24       	eor	r15, r15
    2cfa:	ee 24       	eor	r14, r14
    2cfc:	89 a5       	ldd	r24, Y+41	; 0x29
    2cfe:	9a a5       	ldd	r25, Y+42	; 0x2a
    2d00:	ab a5       	ldd	r26, Y+43	; 0x2b
    2d02:	bc a5       	ldd	r27, Y+44	; 0x2c
    2d04:	a0 70       	andi	r26, 0x00	; 0
    2d06:	b0 70       	andi	r27, 0x00	; 0
    2d08:	57 01       	movw	r10, r14
    2d0a:	68 01       	movw	r12, r16
    2d0c:	a8 2a       	or	r10, r24
    2d0e:	b9 2a       	or	r11, r25
    2d10:	ca 2a       	or	r12, r26
    2d12:	db 2a       	or	r13, r27
    2d14:	a2 16       	cp	r10, r18
    2d16:	b3 06       	cpc	r11, r19
    2d18:	c4 06       	cpc	r12, r20
    2d1a:	d5 06       	cpc	r13, r21
    2d1c:	e0 f4       	brcc	.+56     	; 0x2d56 <__udivdi3+0x5d4>
    2d1e:	08 94       	sec
    2d20:	61 08       	sbc	r6, r1
    2d22:	71 08       	sbc	r7, r1
    2d24:	81 08       	sbc	r8, r1
    2d26:	91 08       	sbc	r9, r1
    2d28:	a2 0c       	add	r10, r2
    2d2a:	b3 1c       	adc	r11, r3
    2d2c:	c4 1c       	adc	r12, r4
    2d2e:	d5 1c       	adc	r13, r5
    2d30:	a2 14       	cp	r10, r2
    2d32:	b3 04       	cpc	r11, r3
    2d34:	c4 04       	cpc	r12, r4
    2d36:	d5 04       	cpc	r13, r5
    2d38:	70 f0       	brcs	.+28     	; 0x2d56 <__udivdi3+0x5d4>
    2d3a:	a2 16       	cp	r10, r18
    2d3c:	b3 06       	cpc	r11, r19
    2d3e:	c4 06       	cpc	r12, r20
    2d40:	d5 06       	cpc	r13, r21
    2d42:	48 f4       	brcc	.+18     	; 0x2d56 <__udivdi3+0x5d4>
    2d44:	08 94       	sec
    2d46:	61 08       	sbc	r6, r1
    2d48:	71 08       	sbc	r7, r1
    2d4a:	81 08       	sbc	r8, r1
    2d4c:	91 08       	sbc	r9, r1
    2d4e:	a2 0c       	add	r10, r2
    2d50:	b3 1c       	adc	r11, r3
    2d52:	c4 1c       	adc	r12, r4
    2d54:	d5 1c       	adc	r13, r5
    2d56:	8d a5       	ldd	r24, Y+45	; 0x2d
    2d58:	9e a5       	ldd	r25, Y+46	; 0x2e
    2d5a:	af a5       	ldd	r26, Y+47	; 0x2f
    2d5c:	b8 a9       	ldd	r27, Y+48	; 0x30
    2d5e:	6f 96       	adiw	r28, 0x1f	; 31
    2d60:	0f ac       	ldd	r0, Y+63	; 0x3f
    2d62:	6f 97       	sbiw	r28, 0x1f	; 31
    2d64:	04 c0       	rjmp	.+8      	; 0x2d6e <__udivdi3+0x5ec>
    2d66:	88 0f       	add	r24, r24
    2d68:	99 1f       	adc	r25, r25
    2d6a:	aa 1f       	adc	r26, r26
    2d6c:	bb 1f       	adc	r27, r27
    2d6e:	0a 94       	dec	r0
    2d70:	d2 f7       	brpl	.-12     	; 0x2d66 <__udivdi3+0x5e4>
    2d72:	8d a7       	std	Y+45, r24	; 0x2d
    2d74:	9e a7       	std	Y+46, r25	; 0x2e
    2d76:	af a7       	std	Y+47, r26	; 0x2f
    2d78:	b8 ab       	std	Y+48, r27	; 0x30
    2d7a:	a2 1a       	sub	r10, r18
    2d7c:	b3 0a       	sbc	r11, r19
    2d7e:	c4 0a       	sbc	r12, r20
    2d80:	d5 0a       	sbc	r13, r21
    2d82:	25 96       	adiw	r28, 0x05	; 5
    2d84:	ec ac       	ldd	r14, Y+60	; 0x3c
    2d86:	fd ac       	ldd	r15, Y+61	; 0x3d
    2d88:	0e ad       	ldd	r16, Y+62	; 0x3e
    2d8a:	1f ad       	ldd	r17, Y+63	; 0x3f
    2d8c:	25 97       	sbiw	r28, 0x05	; 5
    2d8e:	d7 01       	movw	r26, r14
    2d90:	99 27       	eor	r25, r25
    2d92:	88 27       	eor	r24, r24
    2d94:	68 2a       	or	r6, r24
    2d96:	79 2a       	or	r7, r25
    2d98:	8a 2a       	or	r8, r26
    2d9a:	9b 2a       	or	r9, r27
    2d9c:	82 01       	movw	r16, r4
    2d9e:	22 27       	eor	r18, r18
    2da0:	33 27       	eor	r19, r19
    2da2:	29 96       	adiw	r28, 0x09	; 9
    2da4:	0c af       	std	Y+60, r16	; 0x3c
    2da6:	1d af       	std	Y+61, r17	; 0x3d
    2da8:	2e af       	std	Y+62, r18	; 0x3e
    2daa:	3f af       	std	Y+63, r19	; 0x3f
    2dac:	29 97       	sbiw	r28, 0x09	; 9
    2dae:	a2 01       	movw	r20, r4
    2db0:	91 01       	movw	r18, r2
    2db2:	40 70       	andi	r20, 0x00	; 0
    2db4:	50 70       	andi	r21, 0x00	; 0
    2db6:	2d 96       	adiw	r28, 0x0d	; 13
    2db8:	2c af       	std	Y+60, r18	; 0x3c
    2dba:	3d af       	std	Y+61, r19	; 0x3d
    2dbc:	4e af       	std	Y+62, r20	; 0x3e
    2dbe:	5f af       	std	Y+63, r21	; 0x3f
    2dc0:	2d 97       	sbiw	r28, 0x0d	; 13
    2dc2:	c6 01       	movw	r24, r12
    2dc4:	b5 01       	movw	r22, r10
    2dc6:	29 96       	adiw	r28, 0x09	; 9
    2dc8:	2c ad       	ldd	r18, Y+60	; 0x3c
    2dca:	3d ad       	ldd	r19, Y+61	; 0x3d
    2dcc:	4e ad       	ldd	r20, Y+62	; 0x3e
    2dce:	5f ad       	ldd	r21, Y+63	; 0x3f
    2dd0:	29 97       	sbiw	r28, 0x09	; 9
    2dd2:	0e 94 75 1a 	call	0x34ea	; 0x34ea <__udivmodsi4>
    2dd6:	7b 01       	movw	r14, r22
    2dd8:	8c 01       	movw	r16, r24
    2dda:	c6 01       	movw	r24, r12
    2ddc:	b5 01       	movw	r22, r10
    2dde:	29 96       	adiw	r28, 0x09	; 9
    2de0:	2c ad       	ldd	r18, Y+60	; 0x3c
    2de2:	3d ad       	ldd	r19, Y+61	; 0x3d
    2de4:	4e ad       	ldd	r20, Y+62	; 0x3e
    2de6:	5f ad       	ldd	r21, Y+63	; 0x3f
    2de8:	29 97       	sbiw	r28, 0x09	; 9
    2dea:	0e 94 75 1a 	call	0x34ea	; 0x34ea <__udivmodsi4>
    2dee:	c9 01       	movw	r24, r18
    2df0:	da 01       	movw	r26, r20
    2df2:	61 96       	adiw	r28, 0x11	; 17
    2df4:	8c af       	std	Y+60, r24	; 0x3c
    2df6:	9d af       	std	Y+61, r25	; 0x3d
    2df8:	ae af       	std	Y+62, r26	; 0x3e
    2dfa:	bf af       	std	Y+63, r27	; 0x3f
    2dfc:	61 97       	sbiw	r28, 0x11	; 17
    2dfe:	bc 01       	movw	r22, r24
    2e00:	cd 01       	movw	r24, r26
    2e02:	2d 96       	adiw	r28, 0x0d	; 13
    2e04:	2c ad       	ldd	r18, Y+60	; 0x3c
    2e06:	3d ad       	ldd	r19, Y+61	; 0x3d
    2e08:	4e ad       	ldd	r20, Y+62	; 0x3e
    2e0a:	5f ad       	ldd	r21, Y+63	; 0x3f
    2e0c:	2d 97       	sbiw	r28, 0x0d	; 13
    2e0e:	0e 94 36 1a 	call	0x346c	; 0x346c <__mulsi3>
    2e12:	9b 01       	movw	r18, r22
    2e14:	ac 01       	movw	r20, r24
    2e16:	87 01       	movw	r16, r14
    2e18:	ff 24       	eor	r15, r15
    2e1a:	ee 24       	eor	r14, r14
    2e1c:	ad a4       	ldd	r10, Y+45	; 0x2d
    2e1e:	be a4       	ldd	r11, Y+46	; 0x2e
    2e20:	cf a4       	ldd	r12, Y+47	; 0x2f
    2e22:	d8 a8       	ldd	r13, Y+48	; 0x30
    2e24:	c6 01       	movw	r24, r12
    2e26:	aa 27       	eor	r26, r26
    2e28:	bb 27       	eor	r27, r27
    2e2a:	57 01       	movw	r10, r14
    2e2c:	68 01       	movw	r12, r16
    2e2e:	a8 2a       	or	r10, r24
    2e30:	b9 2a       	or	r11, r25
    2e32:	ca 2a       	or	r12, r26
    2e34:	db 2a       	or	r13, r27
    2e36:	a2 16       	cp	r10, r18
    2e38:	b3 06       	cpc	r11, r19
    2e3a:	c4 06       	cpc	r12, r20
    2e3c:	d5 06       	cpc	r13, r21
    2e3e:	60 f5       	brcc	.+88     	; 0x2e98 <__udivdi3+0x716>
    2e40:	61 96       	adiw	r28, 0x11	; 17
    2e42:	6c ad       	ldd	r22, Y+60	; 0x3c
    2e44:	7d ad       	ldd	r23, Y+61	; 0x3d
    2e46:	8e ad       	ldd	r24, Y+62	; 0x3e
    2e48:	9f ad       	ldd	r25, Y+63	; 0x3f
    2e4a:	61 97       	sbiw	r28, 0x11	; 17
    2e4c:	61 50       	subi	r22, 0x01	; 1
    2e4e:	70 40       	sbci	r23, 0x00	; 0
    2e50:	80 40       	sbci	r24, 0x00	; 0
    2e52:	90 40       	sbci	r25, 0x00	; 0
    2e54:	61 96       	adiw	r28, 0x11	; 17
    2e56:	6c af       	std	Y+60, r22	; 0x3c
    2e58:	7d af       	std	Y+61, r23	; 0x3d
    2e5a:	8e af       	std	Y+62, r24	; 0x3e
    2e5c:	9f af       	std	Y+63, r25	; 0x3f
    2e5e:	61 97       	sbiw	r28, 0x11	; 17
    2e60:	a2 0c       	add	r10, r2
    2e62:	b3 1c       	adc	r11, r3
    2e64:	c4 1c       	adc	r12, r4
    2e66:	d5 1c       	adc	r13, r5
    2e68:	a2 14       	cp	r10, r2
    2e6a:	b3 04       	cpc	r11, r3
    2e6c:	c4 04       	cpc	r12, r4
    2e6e:	d5 04       	cpc	r13, r5
    2e70:	98 f0       	brcs	.+38     	; 0x2e98 <__udivdi3+0x716>
    2e72:	a2 16       	cp	r10, r18
    2e74:	b3 06       	cpc	r11, r19
    2e76:	c4 06       	cpc	r12, r20
    2e78:	d5 06       	cpc	r13, r21
    2e7a:	70 f4       	brcc	.+28     	; 0x2e98 <__udivdi3+0x716>
    2e7c:	61 50       	subi	r22, 0x01	; 1
    2e7e:	70 40       	sbci	r23, 0x00	; 0
    2e80:	80 40       	sbci	r24, 0x00	; 0
    2e82:	90 40       	sbci	r25, 0x00	; 0
    2e84:	61 96       	adiw	r28, 0x11	; 17
    2e86:	6c af       	std	Y+60, r22	; 0x3c
    2e88:	7d af       	std	Y+61, r23	; 0x3d
    2e8a:	8e af       	std	Y+62, r24	; 0x3e
    2e8c:	9f af       	std	Y+63, r25	; 0x3f
    2e8e:	61 97       	sbiw	r28, 0x11	; 17
    2e90:	a2 0c       	add	r10, r2
    2e92:	b3 1c       	adc	r11, r3
    2e94:	c4 1c       	adc	r12, r4
    2e96:	d5 1c       	adc	r13, r5
    2e98:	a2 1a       	sub	r10, r18
    2e9a:	b3 0a       	sbc	r11, r19
    2e9c:	c4 0a       	sbc	r12, r20
    2e9e:	d5 0a       	sbc	r13, r21
    2ea0:	c6 01       	movw	r24, r12
    2ea2:	b5 01       	movw	r22, r10
    2ea4:	29 96       	adiw	r28, 0x09	; 9
    2ea6:	2c ad       	ldd	r18, Y+60	; 0x3c
    2ea8:	3d ad       	ldd	r19, Y+61	; 0x3d
    2eaa:	4e ad       	ldd	r20, Y+62	; 0x3e
    2eac:	5f ad       	ldd	r21, Y+63	; 0x3f
    2eae:	29 97       	sbiw	r28, 0x09	; 9
    2eb0:	0e 94 75 1a 	call	0x34ea	; 0x34ea <__udivmodsi4>
    2eb4:	7b 01       	movw	r14, r22
    2eb6:	8c 01       	movw	r16, r24
    2eb8:	c6 01       	movw	r24, r12
    2eba:	b5 01       	movw	r22, r10
    2ebc:	29 96       	adiw	r28, 0x09	; 9
    2ebe:	2c ad       	ldd	r18, Y+60	; 0x3c
    2ec0:	3d ad       	ldd	r19, Y+61	; 0x3d
    2ec2:	4e ad       	ldd	r20, Y+62	; 0x3e
    2ec4:	5f ad       	ldd	r21, Y+63	; 0x3f
    2ec6:	29 97       	sbiw	r28, 0x09	; 9
    2ec8:	0e 94 75 1a 	call	0x34ea	; 0x34ea <__udivmodsi4>
    2ecc:	c9 01       	movw	r24, r18
    2ece:	da 01       	movw	r26, r20
    2ed0:	5c 01       	movw	r10, r24
    2ed2:	6d 01       	movw	r12, r26
    2ed4:	c6 01       	movw	r24, r12
    2ed6:	b5 01       	movw	r22, r10
    2ed8:	2d 96       	adiw	r28, 0x0d	; 13
    2eda:	2c ad       	ldd	r18, Y+60	; 0x3c
    2edc:	3d ad       	ldd	r19, Y+61	; 0x3d
    2ede:	4e ad       	ldd	r20, Y+62	; 0x3e
    2ee0:	5f ad       	ldd	r21, Y+63	; 0x3f
    2ee2:	2d 97       	sbiw	r28, 0x0d	; 13
    2ee4:	0e 94 36 1a 	call	0x346c	; 0x346c <__mulsi3>
    2ee8:	9b 01       	movw	r18, r22
    2eea:	ac 01       	movw	r20, r24
    2eec:	87 01       	movw	r16, r14
    2eee:	ff 24       	eor	r15, r15
    2ef0:	ee 24       	eor	r14, r14
    2ef2:	8d a5       	ldd	r24, Y+45	; 0x2d
    2ef4:	9e a5       	ldd	r25, Y+46	; 0x2e
    2ef6:	af a5       	ldd	r26, Y+47	; 0x2f
    2ef8:	b8 a9       	ldd	r27, Y+48	; 0x30
    2efa:	a0 70       	andi	r26, 0x00	; 0
    2efc:	b0 70       	andi	r27, 0x00	; 0
    2efe:	e8 2a       	or	r14, r24
    2f00:	f9 2a       	or	r15, r25
    2f02:	0a 2b       	or	r16, r26
    2f04:	1b 2b       	or	r17, r27
    2f06:	e2 16       	cp	r14, r18
    2f08:	f3 06       	cpc	r15, r19
    2f0a:	04 07       	cpc	r16, r20
    2f0c:	15 07       	cpc	r17, r21
    2f0e:	c0 f4       	brcc	.+48     	; 0x2f40 <__udivdi3+0x7be>
    2f10:	08 94       	sec
    2f12:	a1 08       	sbc	r10, r1
    2f14:	b1 08       	sbc	r11, r1
    2f16:	c1 08       	sbc	r12, r1
    2f18:	d1 08       	sbc	r13, r1
    2f1a:	e2 0c       	add	r14, r2
    2f1c:	f3 1c       	adc	r15, r3
    2f1e:	04 1d       	adc	r16, r4
    2f20:	15 1d       	adc	r17, r5
    2f22:	e2 14       	cp	r14, r2
    2f24:	f3 04       	cpc	r15, r3
    2f26:	04 05       	cpc	r16, r4
    2f28:	15 05       	cpc	r17, r5
    2f2a:	50 f0       	brcs	.+20     	; 0x2f40 <__udivdi3+0x7be>
    2f2c:	e2 16       	cp	r14, r18
    2f2e:	f3 06       	cpc	r15, r19
    2f30:	04 07       	cpc	r16, r20
    2f32:	15 07       	cpc	r17, r21
    2f34:	28 f4       	brcc	.+10     	; 0x2f40 <__udivdi3+0x7be>
    2f36:	08 94       	sec
    2f38:	a1 08       	sbc	r10, r1
    2f3a:	b1 08       	sbc	r11, r1
    2f3c:	c1 08       	sbc	r12, r1
    2f3e:	d1 08       	sbc	r13, r1
    2f40:	61 96       	adiw	r28, 0x11	; 17
    2f42:	ec ac       	ldd	r14, Y+60	; 0x3c
    2f44:	fd ac       	ldd	r15, Y+61	; 0x3d
    2f46:	0e ad       	ldd	r16, Y+62	; 0x3e
    2f48:	1f ad       	ldd	r17, Y+63	; 0x3f
    2f4a:	61 97       	sbiw	r28, 0x11	; 17
    2f4c:	d7 01       	movw	r26, r14
    2f4e:	99 27       	eor	r25, r25
    2f50:	88 27       	eor	r24, r24
    2f52:	96 01       	movw	r18, r12
    2f54:	85 01       	movw	r16, r10
    2f56:	08 2b       	or	r16, r24
    2f58:	19 2b       	or	r17, r25
    2f5a:	2a 2b       	or	r18, r26
    2f5c:	3b 2b       	or	r19, r27
    2f5e:	09 ab       	std	Y+49, r16	; 0x31
    2f60:	1a ab       	std	Y+50, r17	; 0x32
    2f62:	2b ab       	std	Y+51, r18	; 0x33
    2f64:	3c ab       	std	Y+52, r19	; 0x34
    2f66:	62 c2       	rjmp	.+1220   	; 0x342c <__udivdi3+0xcaa>
    2f68:	6e 14       	cp	r6, r14
    2f6a:	7f 04       	cpc	r7, r15
    2f6c:	80 06       	cpc	r8, r16
    2f6e:	91 06       	cpc	r9, r17
    2f70:	08 f4       	brcc	.+2      	; 0x2f74 <__udivdi3+0x7f2>
    2f72:	51 c2       	rjmp	.+1186   	; 0x3416 <__udivdi3+0xc94>
    2f74:	20 e0       	ldi	r18, 0x00	; 0
    2f76:	e2 16       	cp	r14, r18
    2f78:	20 e0       	ldi	r18, 0x00	; 0
    2f7a:	f2 06       	cpc	r15, r18
    2f7c:	21 e0       	ldi	r18, 0x01	; 1
    2f7e:	02 07       	cpc	r16, r18
    2f80:	20 e0       	ldi	r18, 0x00	; 0
    2f82:	12 07       	cpc	r17, r18
    2f84:	88 f4       	brcc	.+34     	; 0x2fa8 <__udivdi3+0x826>
    2f86:	3f ef       	ldi	r19, 0xFF	; 255
    2f88:	e3 16       	cp	r14, r19
    2f8a:	f1 04       	cpc	r15, r1
    2f8c:	01 05       	cpc	r16, r1
    2f8e:	11 05       	cpc	r17, r1
    2f90:	31 f0       	breq	.+12     	; 0x2f9e <__udivdi3+0x81c>
    2f92:	28 f0       	brcs	.+10     	; 0x2f9e <__udivdi3+0x81c>
    2f94:	48 e0       	ldi	r20, 0x08	; 8
    2f96:	50 e0       	ldi	r21, 0x00	; 0
    2f98:	60 e0       	ldi	r22, 0x00	; 0
    2f9a:	70 e0       	ldi	r23, 0x00	; 0
    2f9c:	17 c0       	rjmp	.+46     	; 0x2fcc <__udivdi3+0x84a>
    2f9e:	40 e0       	ldi	r20, 0x00	; 0
    2fa0:	50 e0       	ldi	r21, 0x00	; 0
    2fa2:	60 e0       	ldi	r22, 0x00	; 0
    2fa4:	70 e0       	ldi	r23, 0x00	; 0
    2fa6:	12 c0       	rjmp	.+36     	; 0x2fcc <__udivdi3+0x84a>
    2fa8:	40 e0       	ldi	r20, 0x00	; 0
    2faa:	e4 16       	cp	r14, r20
    2fac:	40 e0       	ldi	r20, 0x00	; 0
    2fae:	f4 06       	cpc	r15, r20
    2fb0:	40 e0       	ldi	r20, 0x00	; 0
    2fb2:	04 07       	cpc	r16, r20
    2fb4:	41 e0       	ldi	r20, 0x01	; 1
    2fb6:	14 07       	cpc	r17, r20
    2fb8:	28 f0       	brcs	.+10     	; 0x2fc4 <__udivdi3+0x842>
    2fba:	48 e1       	ldi	r20, 0x18	; 24
    2fbc:	50 e0       	ldi	r21, 0x00	; 0
    2fbe:	60 e0       	ldi	r22, 0x00	; 0
    2fc0:	70 e0       	ldi	r23, 0x00	; 0
    2fc2:	04 c0       	rjmp	.+8      	; 0x2fcc <__udivdi3+0x84a>
    2fc4:	40 e1       	ldi	r20, 0x10	; 16
    2fc6:	50 e0       	ldi	r21, 0x00	; 0
    2fc8:	60 e0       	ldi	r22, 0x00	; 0
    2fca:	70 e0       	ldi	r23, 0x00	; 0
    2fcc:	d8 01       	movw	r26, r16
    2fce:	c7 01       	movw	r24, r14
    2fd0:	04 2e       	mov	r0, r20
    2fd2:	04 c0       	rjmp	.+8      	; 0x2fdc <__udivdi3+0x85a>
    2fd4:	b6 95       	lsr	r27
    2fd6:	a7 95       	ror	r26
    2fd8:	97 95       	ror	r25
    2fda:	87 95       	ror	r24
    2fdc:	0a 94       	dec	r0
    2fde:	d2 f7       	brpl	.-12     	; 0x2fd4 <__udivdi3+0x852>
    2fe0:	8f 55       	subi	r24, 0x5F	; 95
    2fe2:	9f 4f       	sbci	r25, 0xFF	; 255
    2fe4:	dc 01       	movw	r26, r24
    2fe6:	2c 91       	ld	r18, X
    2fe8:	30 e2       	ldi	r19, 0x20	; 32
    2fea:	a3 2e       	mov	r10, r19
    2fec:	b1 2c       	mov	r11, r1
    2fee:	c1 2c       	mov	r12, r1
    2ff0:	d1 2c       	mov	r13, r1
    2ff2:	d6 01       	movw	r26, r12
    2ff4:	c5 01       	movw	r24, r10
    2ff6:	84 1b       	sub	r24, r20
    2ff8:	95 0b       	sbc	r25, r21
    2ffa:	a6 0b       	sbc	r26, r22
    2ffc:	b7 0b       	sbc	r27, r23
    2ffe:	82 1b       	sub	r24, r18
    3000:	91 09       	sbc	r25, r1
    3002:	a1 09       	sbc	r26, r1
    3004:	b1 09       	sbc	r27, r1
    3006:	00 97       	sbiw	r24, 0x00	; 0
    3008:	a1 05       	cpc	r26, r1
    300a:	b1 05       	cpc	r27, r1
    300c:	89 f4       	brne	.+34     	; 0x3030 <__udivdi3+0x8ae>
    300e:	e6 14       	cp	r14, r6
    3010:	f7 04       	cpc	r15, r7
    3012:	08 05       	cpc	r16, r8
    3014:	19 05       	cpc	r17, r9
    3016:	08 f4       	brcc	.+2      	; 0x301a <__udivdi3+0x898>
    3018:	f2 c1       	rjmp	.+996    	; 0x33fe <__udivdi3+0xc7c>
    301a:	6d a4       	ldd	r6, Y+45	; 0x2d
    301c:	7e a4       	ldd	r7, Y+46	; 0x2e
    301e:	8f a4       	ldd	r8, Y+47	; 0x2f
    3020:	98 a8       	ldd	r9, Y+48	; 0x30
    3022:	62 14       	cp	r6, r2
    3024:	73 04       	cpc	r7, r3
    3026:	84 04       	cpc	r8, r4
    3028:	95 04       	cpc	r9, r5
    302a:	08 f0       	brcs	.+2      	; 0x302e <__udivdi3+0x8ac>
    302c:	e8 c1       	rjmp	.+976    	; 0x33fe <__udivdi3+0xc7c>
    302e:	f3 c1       	rjmp	.+998    	; 0x3416 <__udivdi3+0xc94>
    3030:	6e 96       	adiw	r28, 0x1e	; 30
    3032:	8f af       	std	Y+63, r24	; 0x3f
    3034:	6e 97       	sbiw	r28, 0x1e	; 30
    3036:	08 2e       	mov	r0, r24
    3038:	04 c0       	rjmp	.+8      	; 0x3042 <__udivdi3+0x8c0>
    303a:	ee 0c       	add	r14, r14
    303c:	ff 1c       	adc	r15, r15
    303e:	00 1f       	adc	r16, r16
    3040:	11 1f       	adc	r17, r17
    3042:	0a 94       	dec	r0
    3044:	d2 f7       	brpl	.-12     	; 0x303a <__udivdi3+0x8b8>
    3046:	6a 2d       	mov	r22, r10
    3048:	68 1b       	sub	r22, r24
    304a:	d2 01       	movw	r26, r4
    304c:	c1 01       	movw	r24, r2
    304e:	06 2e       	mov	r0, r22
    3050:	04 c0       	rjmp	.+8      	; 0x305a <__udivdi3+0x8d8>
    3052:	b6 95       	lsr	r27
    3054:	a7 95       	ror	r26
    3056:	97 95       	ror	r25
    3058:	87 95       	ror	r24
    305a:	0a 94       	dec	r0
    305c:	d2 f7       	brpl	.-12     	; 0x3052 <__udivdi3+0x8d0>
    305e:	5c 01       	movw	r10, r24
    3060:	6d 01       	movw	r12, r26
    3062:	ae 28       	or	r10, r14
    3064:	bf 28       	or	r11, r15
    3066:	c0 2a       	or	r12, r16
    3068:	d1 2a       	or	r13, r17
    306a:	ad a2       	std	Y+37, r10	; 0x25
    306c:	be a2       	std	Y+38, r11	; 0x26
    306e:	cf a2       	std	Y+39, r12	; 0x27
    3070:	d8 a6       	std	Y+40, r13	; 0x28
    3072:	72 01       	movw	r14, r4
    3074:	61 01       	movw	r12, r2
    3076:	6e 96       	adiw	r28, 0x1e	; 30
    3078:	0f ac       	ldd	r0, Y+63	; 0x3f
    307a:	6e 97       	sbiw	r28, 0x1e	; 30
    307c:	04 c0       	rjmp	.+8      	; 0x3086 <__udivdi3+0x904>
    307e:	cc 0c       	add	r12, r12
    3080:	dd 1c       	adc	r13, r13
    3082:	ee 1c       	adc	r14, r14
    3084:	ff 1c       	adc	r15, r15
    3086:	0a 94       	dec	r0
    3088:	d2 f7       	brpl	.-12     	; 0x307e <__udivdi3+0x8fc>
    308a:	c9 a2       	std	Y+33, r12	; 0x21
    308c:	da a2       	std	Y+34, r13	; 0x22
    308e:	eb a2       	std	Y+35, r14	; 0x23
    3090:	fc a2       	std	Y+36, r15	; 0x24
    3092:	64 01       	movw	r12, r8
    3094:	53 01       	movw	r10, r6
    3096:	06 2e       	mov	r0, r22
    3098:	04 c0       	rjmp	.+8      	; 0x30a2 <__udivdi3+0x920>
    309a:	d6 94       	lsr	r13
    309c:	c7 94       	ror	r12
    309e:	b7 94       	ror	r11
    30a0:	a7 94       	ror	r10
    30a2:	0a 94       	dec	r0
    30a4:	d2 f7       	brpl	.-12     	; 0x309a <__udivdi3+0x918>
    30a6:	d4 01       	movw	r26, r8
    30a8:	c3 01       	movw	r24, r6
    30aa:	6e 96       	adiw	r28, 0x1e	; 30
    30ac:	0f ac       	ldd	r0, Y+63	; 0x3f
    30ae:	6e 97       	sbiw	r28, 0x1e	; 30
    30b0:	04 c0       	rjmp	.+8      	; 0x30ba <__udivdi3+0x938>
    30b2:	88 0f       	add	r24, r24
    30b4:	99 1f       	adc	r25, r25
    30b6:	aa 1f       	adc	r26, r26
    30b8:	bb 1f       	adc	r27, r27
    30ba:	0a 94       	dec	r0
    30bc:	d2 f7       	brpl	.-12     	; 0x30b2 <__udivdi3+0x930>
    30be:	ed a4       	ldd	r14, Y+45	; 0x2d
    30c0:	fe a4       	ldd	r15, Y+46	; 0x2e
    30c2:	0f a5       	ldd	r16, Y+47	; 0x2f
    30c4:	18 a9       	ldd	r17, Y+48	; 0x30
    30c6:	04 c0       	rjmp	.+8      	; 0x30d0 <__udivdi3+0x94e>
    30c8:	16 95       	lsr	r17
    30ca:	07 95       	ror	r16
    30cc:	f7 94       	ror	r15
    30ce:	e7 94       	ror	r14
    30d0:	6a 95       	dec	r22
    30d2:	d2 f7       	brpl	.-12     	; 0x30c8 <__udivdi3+0x946>
    30d4:	37 01       	movw	r6, r14
    30d6:	48 01       	movw	r8, r16
    30d8:	68 2a       	or	r6, r24
    30da:	79 2a       	or	r7, r25
    30dc:	8a 2a       	or	r8, r26
    30de:	9b 2a       	or	r9, r27
    30e0:	6d 8e       	std	Y+29, r6	; 0x1d
    30e2:	7e 8e       	std	Y+30, r7	; 0x1e
    30e4:	8f 8e       	std	Y+31, r8	; 0x1f
    30e6:	98 a2       	std	Y+32, r9	; 0x20
    30e8:	ed a0       	ldd	r14, Y+37	; 0x25
    30ea:	fe a0       	ldd	r15, Y+38	; 0x26
    30ec:	0f a1       	ldd	r16, Y+39	; 0x27
    30ee:	18 a5       	ldd	r17, Y+40	; 0x28
    30f0:	38 01       	movw	r6, r16
    30f2:	88 24       	eor	r8, r8
    30f4:	99 24       	eor	r9, r9
    30f6:	98 01       	movw	r18, r16
    30f8:	87 01       	movw	r16, r14
    30fa:	20 70       	andi	r18, 0x00	; 0
    30fc:	30 70       	andi	r19, 0x00	; 0
    30fe:	65 96       	adiw	r28, 0x15	; 21
    3100:	0c af       	std	Y+60, r16	; 0x3c
    3102:	1d af       	std	Y+61, r17	; 0x3d
    3104:	2e af       	std	Y+62, r18	; 0x3e
    3106:	3f af       	std	Y+63, r19	; 0x3f
    3108:	65 97       	sbiw	r28, 0x15	; 21
    310a:	c6 01       	movw	r24, r12
    310c:	b5 01       	movw	r22, r10
    310e:	a4 01       	movw	r20, r8
    3110:	93 01       	movw	r18, r6
    3112:	0e 94 75 1a 	call	0x34ea	; 0x34ea <__udivmodsi4>
    3116:	7b 01       	movw	r14, r22
    3118:	8c 01       	movw	r16, r24
    311a:	c6 01       	movw	r24, r12
    311c:	b5 01       	movw	r22, r10
    311e:	a4 01       	movw	r20, r8
    3120:	93 01       	movw	r18, r6
    3122:	0e 94 75 1a 	call	0x34ea	; 0x34ea <__udivmodsi4>
    3126:	c9 01       	movw	r24, r18
    3128:	da 01       	movw	r26, r20
    312a:	1c 01       	movw	r2, r24
    312c:	2d 01       	movw	r4, r26
    312e:	c2 01       	movw	r24, r4
    3130:	b1 01       	movw	r22, r2
    3132:	65 96       	adiw	r28, 0x15	; 21
    3134:	2c ad       	ldd	r18, Y+60	; 0x3c
    3136:	3d ad       	ldd	r19, Y+61	; 0x3d
    3138:	4e ad       	ldd	r20, Y+62	; 0x3e
    313a:	5f ad       	ldd	r21, Y+63	; 0x3f
    313c:	65 97       	sbiw	r28, 0x15	; 21
    313e:	0e 94 36 1a 	call	0x346c	; 0x346c <__mulsi3>
    3142:	9b 01       	movw	r18, r22
    3144:	ac 01       	movw	r20, r24
    3146:	87 01       	movw	r16, r14
    3148:	ff 24       	eor	r15, r15
    314a:	ee 24       	eor	r14, r14
    314c:	ad 8c       	ldd	r10, Y+29	; 0x1d
    314e:	be 8c       	ldd	r11, Y+30	; 0x1e
    3150:	cf 8c       	ldd	r12, Y+31	; 0x1f
    3152:	d8 a0       	ldd	r13, Y+32	; 0x20
    3154:	c6 01       	movw	r24, r12
    3156:	aa 27       	eor	r26, r26
    3158:	bb 27       	eor	r27, r27
    315a:	57 01       	movw	r10, r14
    315c:	68 01       	movw	r12, r16
    315e:	a8 2a       	or	r10, r24
    3160:	b9 2a       	or	r11, r25
    3162:	ca 2a       	or	r12, r26
    3164:	db 2a       	or	r13, r27
    3166:	a2 16       	cp	r10, r18
    3168:	b3 06       	cpc	r11, r19
    316a:	c4 06       	cpc	r12, r20
    316c:	d5 06       	cpc	r13, r21
    316e:	00 f5       	brcc	.+64     	; 0x31b0 <__udivdi3+0xa2e>
    3170:	08 94       	sec
    3172:	21 08       	sbc	r2, r1
    3174:	31 08       	sbc	r3, r1
    3176:	41 08       	sbc	r4, r1
    3178:	51 08       	sbc	r5, r1
    317a:	ed a0       	ldd	r14, Y+37	; 0x25
    317c:	fe a0       	ldd	r15, Y+38	; 0x26
    317e:	0f a1       	ldd	r16, Y+39	; 0x27
    3180:	18 a5       	ldd	r17, Y+40	; 0x28
    3182:	ae 0c       	add	r10, r14
    3184:	bf 1c       	adc	r11, r15
    3186:	c0 1e       	adc	r12, r16
    3188:	d1 1e       	adc	r13, r17
    318a:	ae 14       	cp	r10, r14
    318c:	bf 04       	cpc	r11, r15
    318e:	c0 06       	cpc	r12, r16
    3190:	d1 06       	cpc	r13, r17
    3192:	70 f0       	brcs	.+28     	; 0x31b0 <__udivdi3+0xa2e>
    3194:	a2 16       	cp	r10, r18
    3196:	b3 06       	cpc	r11, r19
    3198:	c4 06       	cpc	r12, r20
    319a:	d5 06       	cpc	r13, r21
    319c:	48 f4       	brcc	.+18     	; 0x31b0 <__udivdi3+0xa2e>
    319e:	08 94       	sec
    31a0:	21 08       	sbc	r2, r1
    31a2:	31 08       	sbc	r3, r1
    31a4:	41 08       	sbc	r4, r1
    31a6:	51 08       	sbc	r5, r1
    31a8:	ae 0c       	add	r10, r14
    31aa:	bf 1c       	adc	r11, r15
    31ac:	c0 1e       	adc	r12, r16
    31ae:	d1 1e       	adc	r13, r17
    31b0:	a2 1a       	sub	r10, r18
    31b2:	b3 0a       	sbc	r11, r19
    31b4:	c4 0a       	sbc	r12, r20
    31b6:	d5 0a       	sbc	r13, r21
    31b8:	c6 01       	movw	r24, r12
    31ba:	b5 01       	movw	r22, r10
    31bc:	a4 01       	movw	r20, r8
    31be:	93 01       	movw	r18, r6
    31c0:	0e 94 75 1a 	call	0x34ea	; 0x34ea <__udivmodsi4>
    31c4:	7b 01       	movw	r14, r22
    31c6:	8c 01       	movw	r16, r24
    31c8:	c6 01       	movw	r24, r12
    31ca:	b5 01       	movw	r22, r10
    31cc:	a4 01       	movw	r20, r8
    31ce:	93 01       	movw	r18, r6
    31d0:	0e 94 75 1a 	call	0x34ea	; 0x34ea <__udivmodsi4>
    31d4:	c9 01       	movw	r24, r18
    31d6:	da 01       	movw	r26, r20
    31d8:	3c 01       	movw	r6, r24
    31da:	4d 01       	movw	r8, r26
    31dc:	c4 01       	movw	r24, r8
    31de:	b3 01       	movw	r22, r6
    31e0:	65 96       	adiw	r28, 0x15	; 21
    31e2:	2c ad       	ldd	r18, Y+60	; 0x3c
    31e4:	3d ad       	ldd	r19, Y+61	; 0x3d
    31e6:	4e ad       	ldd	r20, Y+62	; 0x3e
    31e8:	5f ad       	ldd	r21, Y+63	; 0x3f
    31ea:	65 97       	sbiw	r28, 0x15	; 21
    31ec:	0e 94 36 1a 	call	0x346c	; 0x346c <__mulsi3>
    31f0:	9b 01       	movw	r18, r22
    31f2:	ac 01       	movw	r20, r24
    31f4:	87 01       	movw	r16, r14
    31f6:	ff 24       	eor	r15, r15
    31f8:	ee 24       	eor	r14, r14
    31fa:	8d 8d       	ldd	r24, Y+29	; 0x1d
    31fc:	9e 8d       	ldd	r25, Y+30	; 0x1e
    31fe:	af 8d       	ldd	r26, Y+31	; 0x1f
    3200:	b8 a1       	ldd	r27, Y+32	; 0x20
    3202:	a0 70       	andi	r26, 0x00	; 0
    3204:	b0 70       	andi	r27, 0x00	; 0
    3206:	57 01       	movw	r10, r14
    3208:	68 01       	movw	r12, r16
    320a:	a8 2a       	or	r10, r24
    320c:	b9 2a       	or	r11, r25
    320e:	ca 2a       	or	r12, r26
    3210:	db 2a       	or	r13, r27
    3212:	a2 16       	cp	r10, r18
    3214:	b3 06       	cpc	r11, r19
    3216:	c4 06       	cpc	r12, r20
    3218:	d5 06       	cpc	r13, r21
    321a:	00 f5       	brcc	.+64     	; 0x325c <__udivdi3+0xada>
    321c:	08 94       	sec
    321e:	61 08       	sbc	r6, r1
    3220:	71 08       	sbc	r7, r1
    3222:	81 08       	sbc	r8, r1
    3224:	91 08       	sbc	r9, r1
    3226:	6d a1       	ldd	r22, Y+37	; 0x25
    3228:	7e a1       	ldd	r23, Y+38	; 0x26
    322a:	8f a1       	ldd	r24, Y+39	; 0x27
    322c:	98 a5       	ldd	r25, Y+40	; 0x28
    322e:	a6 0e       	add	r10, r22
    3230:	b7 1e       	adc	r11, r23
    3232:	c8 1e       	adc	r12, r24
    3234:	d9 1e       	adc	r13, r25
    3236:	a6 16       	cp	r10, r22
    3238:	b7 06       	cpc	r11, r23
    323a:	c8 06       	cpc	r12, r24
    323c:	d9 06       	cpc	r13, r25
    323e:	70 f0       	brcs	.+28     	; 0x325c <__udivdi3+0xada>
    3240:	a2 16       	cp	r10, r18
    3242:	b3 06       	cpc	r11, r19
    3244:	c4 06       	cpc	r12, r20
    3246:	d5 06       	cpc	r13, r21
    3248:	48 f4       	brcc	.+18     	; 0x325c <__udivdi3+0xada>
    324a:	08 94       	sec
    324c:	61 08       	sbc	r6, r1
    324e:	71 08       	sbc	r7, r1
    3250:	81 08       	sbc	r8, r1
    3252:	91 08       	sbc	r9, r1
    3254:	a6 0e       	add	r10, r22
    3256:	b7 1e       	adc	r11, r23
    3258:	c8 1e       	adc	r12, r24
    325a:	d9 1e       	adc	r13, r25
    325c:	d6 01       	movw	r26, r12
    325e:	c5 01       	movw	r24, r10
    3260:	82 1b       	sub	r24, r18
    3262:	93 0b       	sbc	r25, r19
    3264:	a4 0b       	sbc	r26, r20
    3266:	b5 0b       	sbc	r27, r21
    3268:	89 8f       	std	Y+25, r24	; 0x19
    326a:	9a 8f       	std	Y+26, r25	; 0x1a
    326c:	ab 8f       	std	Y+27, r26	; 0x1b
    326e:	bc 8f       	std	Y+28, r27	; 0x1c
    3270:	d1 01       	movw	r26, r2
    3272:	99 27       	eor	r25, r25
    3274:	88 27       	eor	r24, r24
    3276:	64 01       	movw	r12, r8
    3278:	53 01       	movw	r10, r6
    327a:	a8 2a       	or	r10, r24
    327c:	b9 2a       	or	r11, r25
    327e:	ca 2a       	or	r12, r26
    3280:	db 2a       	or	r13, r27
    3282:	a9 aa       	std	Y+49, r10	; 0x31
    3284:	ba aa       	std	Y+50, r11	; 0x32
    3286:	cb aa       	std	Y+51, r12	; 0x33
    3288:	dc aa       	std	Y+52, r13	; 0x34
    328a:	86 01       	movw	r16, r12
    328c:	75 01       	movw	r14, r10
    328e:	2f ef       	ldi	r18, 0xFF	; 255
    3290:	3f ef       	ldi	r19, 0xFF	; 255
    3292:	40 e0       	ldi	r20, 0x00	; 0
    3294:	50 e0       	ldi	r21, 0x00	; 0
    3296:	e2 22       	and	r14, r18
    3298:	f3 22       	and	r15, r19
    329a:	04 23       	and	r16, r20
    329c:	15 23       	and	r17, r21
    329e:	a6 01       	movw	r20, r12
    32a0:	66 27       	eor	r22, r22
    32a2:	77 27       	eor	r23, r23
    32a4:	6d 96       	adiw	r28, 0x1d	; 29
    32a6:	4c af       	std	Y+60, r20	; 0x3c
    32a8:	5d af       	std	Y+61, r21	; 0x3d
    32aa:	6e af       	std	Y+62, r22	; 0x3e
    32ac:	7f af       	std	Y+63, r23	; 0x3f
    32ae:	6d 97       	sbiw	r28, 0x1d	; 29
    32b0:	a9 a0       	ldd	r10, Y+33	; 0x21
    32b2:	ba a0       	ldd	r11, Y+34	; 0x22
    32b4:	cb a0       	ldd	r12, Y+35	; 0x23
    32b6:	dc a0       	ldd	r13, Y+36	; 0x24
    32b8:	6f ef       	ldi	r22, 0xFF	; 255
    32ba:	7f ef       	ldi	r23, 0xFF	; 255
    32bc:	80 e0       	ldi	r24, 0x00	; 0
    32be:	90 e0       	ldi	r25, 0x00	; 0
    32c0:	a6 22       	and	r10, r22
    32c2:	b7 22       	and	r11, r23
    32c4:	c8 22       	and	r12, r24
    32c6:	d9 22       	and	r13, r25
    32c8:	89 a1       	ldd	r24, Y+33	; 0x21
    32ca:	9a a1       	ldd	r25, Y+34	; 0x22
    32cc:	ab a1       	ldd	r26, Y+35	; 0x23
    32ce:	bc a1       	ldd	r27, Y+36	; 0x24
    32d0:	1d 01       	movw	r2, r26
    32d2:	44 24       	eor	r4, r4
    32d4:	55 24       	eor	r5, r5
    32d6:	c8 01       	movw	r24, r16
    32d8:	b7 01       	movw	r22, r14
    32da:	a6 01       	movw	r20, r12
    32dc:	95 01       	movw	r18, r10
    32de:	0e 94 36 1a 	call	0x346c	; 0x346c <__mulsi3>
    32e2:	69 96       	adiw	r28, 0x19	; 25
    32e4:	6c af       	std	Y+60, r22	; 0x3c
    32e6:	7d af       	std	Y+61, r23	; 0x3d
    32e8:	8e af       	std	Y+62, r24	; 0x3e
    32ea:	9f af       	std	Y+63, r25	; 0x3f
    32ec:	69 97       	sbiw	r28, 0x19	; 25
    32ee:	c8 01       	movw	r24, r16
    32f0:	b7 01       	movw	r22, r14
    32f2:	a2 01       	movw	r20, r4
    32f4:	91 01       	movw	r18, r2
    32f6:	0e 94 36 1a 	call	0x346c	; 0x346c <__mulsi3>
    32fa:	3b 01       	movw	r6, r22
    32fc:	4c 01       	movw	r8, r24
    32fe:	6d 96       	adiw	r28, 0x1d	; 29
    3300:	6c ad       	ldd	r22, Y+60	; 0x3c
    3302:	7d ad       	ldd	r23, Y+61	; 0x3d
    3304:	8e ad       	ldd	r24, Y+62	; 0x3e
    3306:	9f ad       	ldd	r25, Y+63	; 0x3f
    3308:	6d 97       	sbiw	r28, 0x1d	; 29
    330a:	a6 01       	movw	r20, r12
    330c:	95 01       	movw	r18, r10
    330e:	0e 94 36 1a 	call	0x346c	; 0x346c <__mulsi3>
    3312:	7b 01       	movw	r14, r22
    3314:	8c 01       	movw	r16, r24
    3316:	6d 96       	adiw	r28, 0x1d	; 29
    3318:	6c ad       	ldd	r22, Y+60	; 0x3c
    331a:	7d ad       	ldd	r23, Y+61	; 0x3d
    331c:	8e ad       	ldd	r24, Y+62	; 0x3e
    331e:	9f ad       	ldd	r25, Y+63	; 0x3f
    3320:	6d 97       	sbiw	r28, 0x1d	; 29
    3322:	a2 01       	movw	r20, r4
    3324:	91 01       	movw	r18, r2
    3326:	0e 94 36 1a 	call	0x346c	; 0x346c <__mulsi3>
    332a:	5b 01       	movw	r10, r22
    332c:	6c 01       	movw	r12, r24
    332e:	a8 01       	movw	r20, r16
    3330:	97 01       	movw	r18, r14
    3332:	26 0d       	add	r18, r6
    3334:	37 1d       	adc	r19, r7
    3336:	48 1d       	adc	r20, r8
    3338:	59 1d       	adc	r21, r9
    333a:	69 96       	adiw	r28, 0x19	; 25
    333c:	6c ac       	ldd	r6, Y+60	; 0x3c
    333e:	7d ac       	ldd	r7, Y+61	; 0x3d
    3340:	8e ac       	ldd	r8, Y+62	; 0x3e
    3342:	9f ac       	ldd	r9, Y+63	; 0x3f
    3344:	69 97       	sbiw	r28, 0x19	; 25
    3346:	c4 01       	movw	r24, r8
    3348:	aa 27       	eor	r26, r26
    334a:	bb 27       	eor	r27, r27
    334c:	28 0f       	add	r18, r24
    334e:	39 1f       	adc	r19, r25
    3350:	4a 1f       	adc	r20, r26
    3352:	5b 1f       	adc	r21, r27
    3354:	2e 15       	cp	r18, r14
    3356:	3f 05       	cpc	r19, r15
    3358:	40 07       	cpc	r20, r16
    335a:	51 07       	cpc	r21, r17
    335c:	48 f4       	brcc	.+18     	; 0x3370 <__udivdi3+0xbee>
    335e:	e1 2c       	mov	r14, r1
    3360:	f1 2c       	mov	r15, r1
    3362:	61 e0       	ldi	r22, 0x01	; 1
    3364:	06 2f       	mov	r16, r22
    3366:	11 2d       	mov	r17, r1
    3368:	ae 0c       	add	r10, r14
    336a:	bf 1c       	adc	r11, r15
    336c:	c0 1e       	adc	r12, r16
    336e:	d1 1e       	adc	r13, r17
    3370:	ca 01       	movw	r24, r20
    3372:	aa 27       	eor	r26, r26
    3374:	bb 27       	eor	r27, r27
    3376:	bc 01       	movw	r22, r24
    3378:	cd 01       	movw	r24, r26
    337a:	6a 0d       	add	r22, r10
    337c:	7b 1d       	adc	r23, r11
    337e:	8c 1d       	adc	r24, r12
    3380:	9d 1d       	adc	r25, r13
    3382:	69 8c       	ldd	r6, Y+25	; 0x19
    3384:	7a 8c       	ldd	r7, Y+26	; 0x1a
    3386:	8b 8c       	ldd	r8, Y+27	; 0x1b
    3388:	9c 8c       	ldd	r9, Y+28	; 0x1c
    338a:	66 16       	cp	r6, r22
    338c:	77 06       	cpc	r7, r23
    338e:	88 06       	cpc	r8, r24
    3390:	99 06       	cpc	r9, r25
    3392:	40 f1       	brcs	.+80     	; 0x33e4 <__udivdi3+0xc62>
    3394:	66 15       	cp	r22, r6
    3396:	77 05       	cpc	r23, r7
    3398:	88 05       	cpc	r24, r8
    339a:	99 05       	cpc	r25, r9
    339c:	09 f0       	breq	.+2      	; 0x33a0 <__udivdi3+0xc1e>
    339e:	43 c0       	rjmp	.+134    	; 0x3426 <__udivdi3+0xca4>
    33a0:	d9 01       	movw	r26, r18
    33a2:	99 27       	eor	r25, r25
    33a4:	88 27       	eor	r24, r24
    33a6:	69 96       	adiw	r28, 0x19	; 25
    33a8:	2c ad       	ldd	r18, Y+60	; 0x3c
    33aa:	3d ad       	ldd	r19, Y+61	; 0x3d
    33ac:	4e ad       	ldd	r20, Y+62	; 0x3e
    33ae:	5f ad       	ldd	r21, Y+63	; 0x3f
    33b0:	69 97       	sbiw	r28, 0x19	; 25
    33b2:	40 70       	andi	r20, 0x00	; 0
    33b4:	50 70       	andi	r21, 0x00	; 0
    33b6:	82 0f       	add	r24, r18
    33b8:	93 1f       	adc	r25, r19
    33ba:	a4 1f       	adc	r26, r20
    33bc:	b5 1f       	adc	r27, r21
    33be:	2d a5       	ldd	r18, Y+45	; 0x2d
    33c0:	3e a5       	ldd	r19, Y+46	; 0x2e
    33c2:	4f a5       	ldd	r20, Y+47	; 0x2f
    33c4:	58 a9       	ldd	r21, Y+48	; 0x30
    33c6:	6e 96       	adiw	r28, 0x1e	; 30
    33c8:	0f ac       	ldd	r0, Y+63	; 0x3f
    33ca:	6e 97       	sbiw	r28, 0x1e	; 30
    33cc:	04 c0       	rjmp	.+8      	; 0x33d6 <__udivdi3+0xc54>
    33ce:	22 0f       	add	r18, r18
    33d0:	33 1f       	adc	r19, r19
    33d2:	44 1f       	adc	r20, r20
    33d4:	55 1f       	adc	r21, r21
    33d6:	0a 94       	dec	r0
    33d8:	d2 f7       	brpl	.-12     	; 0x33ce <__udivdi3+0xc4c>
    33da:	28 17       	cp	r18, r24
    33dc:	39 07       	cpc	r19, r25
    33de:	4a 07       	cpc	r20, r26
    33e0:	5b 07       	cpc	r21, r27
    33e2:	08 f5       	brcc	.+66     	; 0x3426 <__udivdi3+0xca4>
    33e4:	09 a9       	ldd	r16, Y+49	; 0x31
    33e6:	1a a9       	ldd	r17, Y+50	; 0x32
    33e8:	2b a9       	ldd	r18, Y+51	; 0x33
    33ea:	3c a9       	ldd	r19, Y+52	; 0x34
    33ec:	01 50       	subi	r16, 0x01	; 1
    33ee:	10 40       	sbci	r17, 0x00	; 0
    33f0:	20 40       	sbci	r18, 0x00	; 0
    33f2:	30 40       	sbci	r19, 0x00	; 0
    33f4:	09 ab       	std	Y+49, r16	; 0x31
    33f6:	1a ab       	std	Y+50, r17	; 0x32
    33f8:	2b ab       	std	Y+51, r18	; 0x33
    33fa:	3c ab       	std	Y+52, r19	; 0x34
    33fc:	14 c0       	rjmp	.+40     	; 0x3426 <__udivdi3+0xca4>
    33fe:	66 24       	eor	r6, r6
    3400:	77 24       	eor	r7, r7
    3402:	43 01       	movw	r8, r6
    3404:	21 e0       	ldi	r18, 0x01	; 1
    3406:	30 e0       	ldi	r19, 0x00	; 0
    3408:	40 e0       	ldi	r20, 0x00	; 0
    340a:	50 e0       	ldi	r21, 0x00	; 0
    340c:	29 ab       	std	Y+49, r18	; 0x31
    340e:	3a ab       	std	Y+50, r19	; 0x32
    3410:	4b ab       	std	Y+51, r20	; 0x33
    3412:	5c ab       	std	Y+52, r21	; 0x34
    3414:	0b c0       	rjmp	.+22     	; 0x342c <__udivdi3+0xcaa>
    3416:	66 24       	eor	r6, r6
    3418:	77 24       	eor	r7, r7
    341a:	43 01       	movw	r8, r6
    341c:	19 aa       	std	Y+49, r1	; 0x31
    341e:	1a aa       	std	Y+50, r1	; 0x32
    3420:	1b aa       	std	Y+51, r1	; 0x33
    3422:	1c aa       	std	Y+52, r1	; 0x34
    3424:	03 c0       	rjmp	.+6      	; 0x342c <__udivdi3+0xcaa>
    3426:	66 24       	eor	r6, r6
    3428:	77 24       	eor	r7, r7
    342a:	43 01       	movw	r8, r6
    342c:	fe 01       	movw	r30, r28
    342e:	71 96       	adiw	r30, 0x11	; 17
    3430:	88 e0       	ldi	r24, 0x08	; 8
    3432:	df 01       	movw	r26, r30
    3434:	1d 92       	st	X+, r1
    3436:	8a 95       	dec	r24
    3438:	e9 f7       	brne	.-6      	; 0x3434 <__udivdi3+0xcb2>
    343a:	a9 a8       	ldd	r10, Y+49	; 0x31
    343c:	ba a8       	ldd	r11, Y+50	; 0x32
    343e:	cb a8       	ldd	r12, Y+51	; 0x33
    3440:	dc a8       	ldd	r13, Y+52	; 0x34
    3442:	a9 8a       	std	Y+17, r10	; 0x11
    3444:	ba 8a       	std	Y+18, r11	; 0x12
    3446:	cb 8a       	std	Y+19, r12	; 0x13
    3448:	dc 8a       	std	Y+20, r13	; 0x14
    344a:	6d 8a       	std	Y+21, r6	; 0x15
    344c:	7e 8a       	std	Y+22, r7	; 0x16
    344e:	8f 8a       	std	Y+23, r8	; 0x17
    3450:	98 8e       	std	Y+24, r9	; 0x18
    3452:	29 a9       	ldd	r18, Y+49	; 0x31
    3454:	3a 89       	ldd	r19, Y+18	; 0x12
    3456:	4b 89       	ldd	r20, Y+19	; 0x13
    3458:	5c 89       	ldd	r21, Y+20	; 0x14
    345a:	66 2d       	mov	r22, r6
    345c:	7e 89       	ldd	r23, Y+22	; 0x16
    345e:	8f 89       	ldd	r24, Y+23	; 0x17
    3460:	98 8d       	ldd	r25, Y+24	; 0x18
    3462:	c2 5a       	subi	r28, 0xA2	; 162
    3464:	df 4f       	sbci	r29, 0xFF	; 255
    3466:	e2 e1       	ldi	r30, 0x12	; 18
    3468:	0c 94 ce 1a 	jmp	0x359c	; 0x359c <__epilogue_restores__>

0000346c <__mulsi3>:
    346c:	62 9f       	mul	r22, r18
    346e:	d0 01       	movw	r26, r0
    3470:	73 9f       	mul	r23, r19
    3472:	f0 01       	movw	r30, r0
    3474:	82 9f       	mul	r24, r18
    3476:	e0 0d       	add	r30, r0
    3478:	f1 1d       	adc	r31, r1
    347a:	64 9f       	mul	r22, r20
    347c:	e0 0d       	add	r30, r0
    347e:	f1 1d       	adc	r31, r1
    3480:	92 9f       	mul	r25, r18
    3482:	f0 0d       	add	r31, r0
    3484:	83 9f       	mul	r24, r19
    3486:	f0 0d       	add	r31, r0
    3488:	74 9f       	mul	r23, r20
    348a:	f0 0d       	add	r31, r0
    348c:	65 9f       	mul	r22, r21
    348e:	f0 0d       	add	r31, r0
    3490:	99 27       	eor	r25, r25
    3492:	72 9f       	mul	r23, r18
    3494:	b0 0d       	add	r27, r0
    3496:	e1 1d       	adc	r30, r1
    3498:	f9 1f       	adc	r31, r25
    349a:	63 9f       	mul	r22, r19
    349c:	b0 0d       	add	r27, r0
    349e:	e1 1d       	adc	r30, r1
    34a0:	f9 1f       	adc	r31, r25
    34a2:	bd 01       	movw	r22, r26
    34a4:	cf 01       	movw	r24, r30
    34a6:	11 24       	eor	r1, r1
    34a8:	08 95       	ret

000034aa <__udivmodqi4>:
    34aa:	99 1b       	sub	r25, r25
    34ac:	79 e0       	ldi	r23, 0x09	; 9
    34ae:	04 c0       	rjmp	.+8      	; 0x34b8 <__udivmodqi4_ep>

000034b0 <__udivmodqi4_loop>:
    34b0:	99 1f       	adc	r25, r25
    34b2:	96 17       	cp	r25, r22
    34b4:	08 f0       	brcs	.+2      	; 0x34b8 <__udivmodqi4_ep>
    34b6:	96 1b       	sub	r25, r22

000034b8 <__udivmodqi4_ep>:
    34b8:	88 1f       	adc	r24, r24
    34ba:	7a 95       	dec	r23
    34bc:	c9 f7       	brne	.-14     	; 0x34b0 <__udivmodqi4_loop>
    34be:	80 95       	com	r24
    34c0:	08 95       	ret

000034c2 <__udivmodhi4>:
    34c2:	aa 1b       	sub	r26, r26
    34c4:	bb 1b       	sub	r27, r27
    34c6:	51 e1       	ldi	r21, 0x11	; 17
    34c8:	07 c0       	rjmp	.+14     	; 0x34d8 <__udivmodhi4_ep>

000034ca <__udivmodhi4_loop>:
    34ca:	aa 1f       	adc	r26, r26
    34cc:	bb 1f       	adc	r27, r27
    34ce:	a6 17       	cp	r26, r22
    34d0:	b7 07       	cpc	r27, r23
    34d2:	10 f0       	brcs	.+4      	; 0x34d8 <__udivmodhi4_ep>
    34d4:	a6 1b       	sub	r26, r22
    34d6:	b7 0b       	sbc	r27, r23

000034d8 <__udivmodhi4_ep>:
    34d8:	88 1f       	adc	r24, r24
    34da:	99 1f       	adc	r25, r25
    34dc:	5a 95       	dec	r21
    34de:	a9 f7       	brne	.-22     	; 0x34ca <__udivmodhi4_loop>
    34e0:	80 95       	com	r24
    34e2:	90 95       	com	r25
    34e4:	bc 01       	movw	r22, r24
    34e6:	cd 01       	movw	r24, r26
    34e8:	08 95       	ret

000034ea <__udivmodsi4>:
    34ea:	a1 e2       	ldi	r26, 0x21	; 33
    34ec:	1a 2e       	mov	r1, r26
    34ee:	aa 1b       	sub	r26, r26
    34f0:	bb 1b       	sub	r27, r27
    34f2:	fd 01       	movw	r30, r26
    34f4:	0d c0       	rjmp	.+26     	; 0x3510 <__udivmodsi4_ep>

000034f6 <__udivmodsi4_loop>:
    34f6:	aa 1f       	adc	r26, r26
    34f8:	bb 1f       	adc	r27, r27
    34fa:	ee 1f       	adc	r30, r30
    34fc:	ff 1f       	adc	r31, r31
    34fe:	a2 17       	cp	r26, r18
    3500:	b3 07       	cpc	r27, r19
    3502:	e4 07       	cpc	r30, r20
    3504:	f5 07       	cpc	r31, r21
    3506:	20 f0       	brcs	.+8      	; 0x3510 <__udivmodsi4_ep>
    3508:	a2 1b       	sub	r26, r18
    350a:	b3 0b       	sbc	r27, r19
    350c:	e4 0b       	sbc	r30, r20
    350e:	f5 0b       	sbc	r31, r21

00003510 <__udivmodsi4_ep>:
    3510:	66 1f       	adc	r22, r22
    3512:	77 1f       	adc	r23, r23
    3514:	88 1f       	adc	r24, r24
    3516:	99 1f       	adc	r25, r25
    3518:	1a 94       	dec	r1
    351a:	69 f7       	brne	.-38     	; 0x34f6 <__udivmodsi4_loop>
    351c:	60 95       	com	r22
    351e:	70 95       	com	r23
    3520:	80 95       	com	r24
    3522:	90 95       	com	r25
    3524:	9b 01       	movw	r18, r22
    3526:	ac 01       	movw	r20, r24
    3528:	bd 01       	movw	r22, r26
    352a:	cf 01       	movw	r24, r30
    352c:	08 95       	ret

0000352e <__divmodsi4>:
    352e:	97 fb       	bst	r25, 7
    3530:	09 2e       	mov	r0, r25
    3532:	05 26       	eor	r0, r21
    3534:	0e d0       	rcall	.+28     	; 0x3552 <__divmodsi4_neg1>
    3536:	57 fd       	sbrc	r21, 7
    3538:	04 d0       	rcall	.+8      	; 0x3542 <__divmodsi4_neg2>
    353a:	d7 df       	rcall	.-82     	; 0x34ea <__udivmodsi4>
    353c:	0a d0       	rcall	.+20     	; 0x3552 <__divmodsi4_neg1>
    353e:	00 1c       	adc	r0, r0
    3540:	38 f4       	brcc	.+14     	; 0x3550 <__divmodsi4_exit>

00003542 <__divmodsi4_neg2>:
    3542:	50 95       	com	r21
    3544:	40 95       	com	r20
    3546:	30 95       	com	r19
    3548:	21 95       	neg	r18
    354a:	3f 4f       	sbci	r19, 0xFF	; 255
    354c:	4f 4f       	sbci	r20, 0xFF	; 255
    354e:	5f 4f       	sbci	r21, 0xFF	; 255

00003550 <__divmodsi4_exit>:
    3550:	08 95       	ret

00003552 <__divmodsi4_neg1>:
    3552:	f6 f7       	brtc	.-4      	; 0x3550 <__divmodsi4_exit>
    3554:	90 95       	com	r25
    3556:	80 95       	com	r24
    3558:	70 95       	com	r23
    355a:	61 95       	neg	r22
    355c:	7f 4f       	sbci	r23, 0xFF	; 255
    355e:	8f 4f       	sbci	r24, 0xFF	; 255
    3560:	9f 4f       	sbci	r25, 0xFF	; 255
    3562:	08 95       	ret

00003564 <__prologue_saves__>:
    3564:	2f 92       	push	r2
    3566:	3f 92       	push	r3
    3568:	4f 92       	push	r4
    356a:	5f 92       	push	r5
    356c:	6f 92       	push	r6
    356e:	7f 92       	push	r7
    3570:	8f 92       	push	r8
    3572:	9f 92       	push	r9
    3574:	af 92       	push	r10
    3576:	bf 92       	push	r11
    3578:	cf 92       	push	r12
    357a:	df 92       	push	r13
    357c:	ef 92       	push	r14
    357e:	ff 92       	push	r15
    3580:	0f 93       	push	r16
    3582:	1f 93       	push	r17
    3584:	cf 93       	push	r28
    3586:	df 93       	push	r29
    3588:	cd b7       	in	r28, 0x3d	; 61
    358a:	de b7       	in	r29, 0x3e	; 62
    358c:	ca 1b       	sub	r28, r26
    358e:	db 0b       	sbc	r29, r27
    3590:	0f b6       	in	r0, 0x3f	; 63
    3592:	f8 94       	cli
    3594:	de bf       	out	0x3e, r29	; 62
    3596:	0f be       	out	0x3f, r0	; 63
    3598:	cd bf       	out	0x3d, r28	; 61
    359a:	09 94       	ijmp

0000359c <__epilogue_restores__>:
    359c:	2a 88       	ldd	r2, Y+18	; 0x12
    359e:	39 88       	ldd	r3, Y+17	; 0x11
    35a0:	48 88       	ldd	r4, Y+16	; 0x10
    35a2:	5f 84       	ldd	r5, Y+15	; 0x0f
    35a4:	6e 84       	ldd	r6, Y+14	; 0x0e
    35a6:	7d 84       	ldd	r7, Y+13	; 0x0d
    35a8:	8c 84       	ldd	r8, Y+12	; 0x0c
    35aa:	9b 84       	ldd	r9, Y+11	; 0x0b
    35ac:	aa 84       	ldd	r10, Y+10	; 0x0a
    35ae:	b9 84       	ldd	r11, Y+9	; 0x09
    35b0:	c8 84       	ldd	r12, Y+8	; 0x08
    35b2:	df 80       	ldd	r13, Y+7	; 0x07
    35b4:	ee 80       	ldd	r14, Y+6	; 0x06
    35b6:	fd 80       	ldd	r15, Y+5	; 0x05
    35b8:	0c 81       	ldd	r16, Y+4	; 0x04
    35ba:	1b 81       	ldd	r17, Y+3	; 0x03
    35bc:	aa 81       	ldd	r26, Y+2	; 0x02
    35be:	b9 81       	ldd	r27, Y+1	; 0x01
    35c0:	ce 0f       	add	r28, r30
    35c2:	d1 1d       	adc	r29, r1
    35c4:	0f b6       	in	r0, 0x3f	; 63
    35c6:	f8 94       	cli
    35c8:	de bf       	out	0x3e, r29	; 62
    35ca:	0f be       	out	0x3f, r0	; 63
    35cc:	cd bf       	out	0x3d, r28	; 61
    35ce:	ed 01       	movw	r28, r26
    35d0:	08 95       	ret

000035d2 <strcpy>:
    35d2:	fb 01       	movw	r30, r22
    35d4:	dc 01       	movw	r26, r24
    35d6:	01 90       	ld	r0, Z+
    35d8:	0d 92       	st	X+, r0
    35da:	00 20       	and	r0, r0
    35dc:	e1 f7       	brne	.-8      	; 0x35d6 <strcpy+0x4>
    35de:	08 95       	ret

000035e0 <_exit>:
    35e0:	f8 94       	cli

000035e2 <__stop_program>:
    35e2:	ff cf       	rjmp	.-2      	; 0x35e2 <__stop_program>
